ARM GAS  C:\Users\Lory\AppData\Local\Temp\ccx1uSkS.s 			page 1


   1              		.syntax unified
   2              		.cpu cortex-m3
   3              		.fpu softvfp
   4              		.eabi_attribute 20, 1
   5              		.eabi_attribute 21, 1
   6              		.eabi_attribute 23, 3
   7              		.eabi_attribute 24, 1
   8              		.eabi_attribute 25, 1
   9              		.eabi_attribute 26, 1
  10              		.eabi_attribute 30, 1
  11              		.eabi_attribute 34, 1
  12              		.eabi_attribute 18, 4
  13              		.thumb
  14              		.syntax unified
  15              		.file	"I2C_Interface.c"
  16              		.text
  17              	.Ltext0:
  18              		.cfi_sections	.debug_frame
  19              		.section	.text.I2C_Peripheral_Start,"ax",%progbits
  20              		.align	2
  21              		.global	I2C_Peripheral_Start
  22              		.thumb
  23              		.thumb_func
  24              		.type	I2C_Peripheral_Start, %function
  25              	I2C_Peripheral_Start:
  26              	.LFB0:
  27              		.file 1 "I2C_Interface.c"
   1:I2C_Interface.c **** /*
   2:I2C_Interface.c **** * This file includes all the required source code to interface
   3:I2C_Interface.c **** * the I2C peripheral.
   4:I2C_Interface.c **** */
   5:I2C_Interface.c **** 
   6:I2C_Interface.c **** /**
   7:I2C_Interface.c **** *   \brief Value returned if device present on I2C bus.
   8:I2C_Interface.c **** */
   9:I2C_Interface.c **** #ifndef DEVICE_CONNECTED
  10:I2C_Interface.c ****     #define DEVICE_CONNECTED 1
  11:I2C_Interface.c **** #endif
  12:I2C_Interface.c **** 
  13:I2C_Interface.c **** /**
  14:I2C_Interface.c **** *   \brief Value returned if device not present on I2C bus.
  15:I2C_Interface.c **** */
  16:I2C_Interface.c **** #ifndef DEVICE_UNCONNECTED
  17:I2C_Interface.c ****     #define DEVICE_UNCONNECTED 0
  18:I2C_Interface.c **** #endif
  19:I2C_Interface.c **** 
  20:I2C_Interface.c **** #include "I2C_Interface.h" 
  21:I2C_Interface.c **** #include "I2C_Master.h"
  22:I2C_Interface.c **** 
  23:I2C_Interface.c ****     ErrorCode I2C_Peripheral_Start(void) 
  24:I2C_Interface.c ****     {
  28              		.loc 1 24 0
  29              		.cfi_startproc
  30              		@ args = 0, pretend = 0, frame = 0
  31              		@ frame_needed = 0, uses_anonymous_args = 0
  32 0000 08B5     		push	{r3, lr}
  33              		.cfi_def_cfa_offset 8
ARM GAS  C:\Users\Lory\AppData\Local\Temp\ccx1uSkS.s 			page 2


  34              		.cfi_offset 3, -8
  35              		.cfi_offset 14, -4
  25:I2C_Interface.c ****         // Start I2C peripheral
  26:I2C_Interface.c ****         I2C_Master_Start();  
  36              		.loc 1 26 0
  37 0002 FFF7FEFF 		bl	I2C_Master_Start
  38              	.LVL0:
  27:I2C_Interface.c ****         
  28:I2C_Interface.c ****         // Return no error since start function does not return any error
  29:I2C_Interface.c ****         return NO_ERROR;
  30:I2C_Interface.c ****     }
  39              		.loc 1 30 0
  40 0006 0020     		movs	r0, #0
  41 0008 08BD     		pop	{r3, pc}
  42              		.cfi_endproc
  43              	.LFE0:
  44              		.size	I2C_Peripheral_Start, .-I2C_Peripheral_Start
  45 000a 00BF     		.section	.text.I2C_Peripheral_Stop,"ax",%progbits
  46              		.align	2
  47              		.global	I2C_Peripheral_Stop
  48              		.thumb
  49              		.thumb_func
  50              		.type	I2C_Peripheral_Stop, %function
  51              	I2C_Peripheral_Stop:
  52              	.LFB1:
  31:I2C_Interface.c ****     
  32:I2C_Interface.c ****     
  33:I2C_Interface.c ****     ErrorCode I2C_Peripheral_Stop(void)
  34:I2C_Interface.c ****     {
  53              		.loc 1 34 0
  54              		.cfi_startproc
  55              		@ args = 0, pretend = 0, frame = 0
  56              		@ frame_needed = 0, uses_anonymous_args = 0
  57 0000 08B5     		push	{r3, lr}
  58              		.cfi_def_cfa_offset 8
  59              		.cfi_offset 3, -8
  60              		.cfi_offset 14, -4
  35:I2C_Interface.c ****         // Stop I2C peripheral
  36:I2C_Interface.c ****         I2C_Master_Stop();
  61              		.loc 1 36 0
  62 0002 FFF7FEFF 		bl	I2C_Master_Stop
  63              	.LVL1:
  37:I2C_Interface.c ****         // Return no error since stop function does not return any error
  38:I2C_Interface.c ****         return NO_ERROR;
  39:I2C_Interface.c ****     }
  64              		.loc 1 39 0
  65 0006 0020     		movs	r0, #0
  66 0008 08BD     		pop	{r3, pc}
  67              		.cfi_endproc
  68              	.LFE1:
  69              		.size	I2C_Peripheral_Stop, .-I2C_Peripheral_Stop
  70 000a 00BF     		.section	.text.I2C_Peripheral_ReadRegister,"ax",%progbits
  71              		.align	2
  72              		.global	I2C_Peripheral_ReadRegister
  73              		.thumb
  74              		.thumb_func
  75              		.type	I2C_Peripheral_ReadRegister, %function
ARM GAS  C:\Users\Lory\AppData\Local\Temp\ccx1uSkS.s 			page 3


  76              	I2C_Peripheral_ReadRegister:
  77              	.LFB2:
  40:I2C_Interface.c **** 
  41:I2C_Interface.c ****     ErrorCode I2C_Peripheral_ReadRegister(uint8_t device_address, 
  42:I2C_Interface.c ****                                             uint8_t register_address,
  43:I2C_Interface.c ****                                             uint8_t* data)
  44:I2C_Interface.c ****     {
  78              		.loc 1 44 0
  79              		.cfi_startproc
  80              		@ args = 0, pretend = 0, frame = 0
  81              		@ frame_needed = 0, uses_anonymous_args = 0
  82              	.LVL2:
  83 0000 F8B5     		push	{r3, r4, r5, r6, r7, lr}
  84              		.cfi_def_cfa_offset 24
  85              		.cfi_offset 3, -24
  86              		.cfi_offset 4, -20
  87              		.cfi_offset 5, -16
  88              		.cfi_offset 6, -12
  89              		.cfi_offset 7, -8
  90              		.cfi_offset 14, -4
  91 0002 0646     		mov	r6, r0
  92 0004 0D46     		mov	r5, r1
  93 0006 1746     		mov	r7, r2
  45:I2C_Interface.c ****         // Send start condition
  46:I2C_Interface.c ****         uint8_t error = I2C_Master_MasterSendStart(device_address,I2C_Master_WRITE_XFER_MODE);
  94              		.loc 1 46 0
  95 0008 0021     		movs	r1, #0
  96              	.LVL3:
  97 000a FFF7FEFF 		bl	I2C_Master_MasterSendStart
  98              	.LVL4:
  47:I2C_Interface.c ****         if (error == I2C_Master_MSTR_NO_ERROR)
  99              		.loc 1 47 0
 100 000e 0446     		mov	r4, r0
 101 0010 68B9     		cbnz	r0, .L6
  48:I2C_Interface.c ****         {
  49:I2C_Interface.c ****             // Write address of register to be read
  50:I2C_Interface.c ****             error = I2C_Master_MasterWriteByte(register_address);
 102              		.loc 1 50 0
 103 0012 2846     		mov	r0, r5
 104              	.LVL5:
 105 0014 FFF7FEFF 		bl	I2C_Master_MasterWriteByte
 106              	.LVL6:
  51:I2C_Interface.c ****             if (error == I2C_Master_MSTR_NO_ERROR)
 107              		.loc 1 51 0
 108 0018 0446     		mov	r4, r0
 109 001a 40B9     		cbnz	r0, .L6
  52:I2C_Interface.c ****             {
  53:I2C_Interface.c ****                 // Send restart condition
  54:I2C_Interface.c ****                 error = I2C_Master_MasterSendRestart(device_address, I2C_Master_READ_XFER_MODE);
 110              		.loc 1 54 0
 111 001c 0121     		movs	r1, #1
 112 001e 3046     		mov	r0, r6
 113              	.LVL7:
 114 0020 FFF7FEFF 		bl	I2C_Master_MasterSendRestart
 115              	.LVL8:
  55:I2C_Interface.c ****                 if (error == I2C_Master_MSTR_NO_ERROR)
 116              		.loc 1 55 0
ARM GAS  C:\Users\Lory\AppData\Local\Temp\ccx1uSkS.s 			page 4


 117 0024 0446     		mov	r4, r0
 118 0026 10B9     		cbnz	r0, .L6
  56:I2C_Interface.c ****                 {
  57:I2C_Interface.c ****                     // Read data without acknowledgement
  58:I2C_Interface.c ****                     *data = I2C_Master_MasterReadByte(I2C_Master_NAK_DATA);
 119              		.loc 1 58 0
 120 0028 FFF7FEFF 		bl	I2C_Master_MasterReadByte
 121              	.LVL9:
 122 002c 3870     		strb	r0, [r7]
 123              	.L6:
 124              	.LVL10:
  59:I2C_Interface.c ****                 }
  60:I2C_Interface.c ****             }
  61:I2C_Interface.c ****         }
  62:I2C_Interface.c ****         // Send stop condition
  63:I2C_Interface.c ****         I2C_Master_MasterSendStop();
 125              		.loc 1 63 0
 126 002e FFF7FEFF 		bl	I2C_Master_MasterSendStop
 127              	.LVL11:
  64:I2C_Interface.c ****         // Return error code
  65:I2C_Interface.c ****         return error ? ERROR : NO_ERROR;
  66:I2C_Interface.c ****     }
 128              		.loc 1 66 0
 129 0032 201C     		adds	r0, r4, #0
 130 0034 18BF     		it	ne
 131 0036 0120     		movne	r0, #1
 132 0038 F8BD     		pop	{r3, r4, r5, r6, r7, pc}
 133              		.cfi_endproc
 134              	.LFE2:
 135              		.size	I2C_Peripheral_ReadRegister, .-I2C_Peripheral_ReadRegister
 136 003a 00BF     		.section	.text.I2C_Peripheral_ReadRegisterMulti,"ax",%progbits
 137              		.align	2
 138              		.global	I2C_Peripheral_ReadRegisterMulti
 139              		.thumb
 140              		.thumb_func
 141              		.type	I2C_Peripheral_ReadRegisterMulti, %function
 142              	I2C_Peripheral_ReadRegisterMulti:
 143              	.LFB3:
  67:I2C_Interface.c ****     
  68:I2C_Interface.c ****     ErrorCode I2C_Peripheral_ReadRegisterMulti(uint8_t device_address,
  69:I2C_Interface.c ****                                                 uint8_t register_address,
  70:I2C_Interface.c ****                                                 uint8_t register_count,
  71:I2C_Interface.c ****                                                 uint8_t* data)
  72:I2C_Interface.c ****     {
 144              		.loc 1 72 0
 145              		.cfi_startproc
 146              		@ args = 0, pretend = 0, frame = 0
 147              		@ frame_needed = 0, uses_anonymous_args = 0
 148              	.LVL12:
 149 0000 2DE9F041 		push	{r4, r5, r6, r7, r8, lr}
 150              		.cfi_def_cfa_offset 24
 151              		.cfi_offset 4, -24
 152              		.cfi_offset 5, -20
 153              		.cfi_offset 6, -16
 154              		.cfi_offset 7, -12
 155              		.cfi_offset 8, -8
 156              		.cfi_offset 14, -4
ARM GAS  C:\Users\Lory\AppData\Local\Temp\ccx1uSkS.s 			page 5


 157 0004 8046     		mov	r8, r0
 158 0006 0F46     		mov	r7, r1
 159 0008 1546     		mov	r5, r2
 160 000a 1E46     		mov	r6, r3
 161              	.LVL13:
 162              	.LBB2:
  73:I2C_Interface.c ****         uint8_t error = ERROR;
  74:I2C_Interface.c ****         for (int i=0; i<register_count; i++)
 163              		.loc 1 74 0
 164 000c 0024     		movs	r4, #0
 165              	.LBE2:
  73:I2C_Interface.c ****         uint8_t error = ERROR;
 166              		.loc 1 73 0
 167 000e 0120     		movs	r0, #1
 168              	.LVL14:
 169              	.LBB3:
 170              		.loc 1 74 0
 171 0010 08E0     		b	.L9
 172              	.LVL15:
 173              	.L11:
  75:I2C_Interface.c ****         {
  76:I2C_Interface.c ****             error = I2C_Peripheral_ReadRegister(device_address,
 174              		.loc 1 76 0
 175 0012 3919     		adds	r1, r7, r4
 176 0014 3219     		adds	r2, r6, r4
 177 0016 C9B2     		uxtb	r1, r1
 178 0018 4046     		mov	r0, r8
 179              	.LVL16:
 180 001a FFF7FEFF 		bl	I2C_Peripheral_ReadRegister
 181              	.LVL17:
  77:I2C_Interface.c ****                                                 register_address+i*I2C_Master_SLAVE_ADDR_SHIFT,
  78:I2C_Interface.c ****                                                 data+i);
  79:I2C_Interface.c ****             if(error == ERROR)
 182              		.loc 1 79 0
 183 001e 0128     		cmp	r0, #1
 184 0020 05D0     		beq	.L10
  74:I2C_Interface.c ****         {
 185              		.loc 1 74 0 discriminator 2
 186 0022 0134     		adds	r4, r4, #1
 187              	.LVL18:
 188              	.L9:
  74:I2C_Interface.c ****         {
 189              		.loc 1 74 0 is_stmt 0 discriminator 1
 190 0024 AC42     		cmp	r4, r5
 191 0026 F4DB     		blt	.L11
 192              	.LBE3:
  80:I2C_Interface.c ****             {
  81:I2C_Interface.c ****                 return error;
  82:I2C_Interface.c ****             }
  83:I2C_Interface.c ****         }
  84:I2C_Interface.c ****         return error ? ERROR : NO_ERROR; 
 193              		.loc 1 84 0 is_stmt 1
 194 0028 0030     		adds	r0, r0, #0
 195              	.LVL19:
 196 002a 18BF     		it	ne
 197 002c 0120     		movne	r0, #1
 198              	.L10:
ARM GAS  C:\Users\Lory\AppData\Local\Temp\ccx1uSkS.s 			page 6


  85:I2C_Interface.c ****     }
 199              		.loc 1 85 0
 200 002e BDE8F081 		pop	{r4, r5, r6, r7, r8, pc}
 201              		.cfi_endproc
 202              	.LFE3:
 203              		.size	I2C_Peripheral_ReadRegisterMulti, .-I2C_Peripheral_ReadRegisterMulti
 204 0032 00BF     		.section	.text.I2C_Peripheral_WriteRegister,"ax",%progbits
 205              		.align	2
 206              		.global	I2C_Peripheral_WriteRegister
 207              		.thumb
 208              		.thumb_func
 209              		.type	I2C_Peripheral_WriteRegister, %function
 210              	I2C_Peripheral_WriteRegister:
 211              	.LFB4:
  86:I2C_Interface.c ****     
  87:I2C_Interface.c ****     ErrorCode I2C_Peripheral_WriteRegister(uint8_t device_address,
  88:I2C_Interface.c ****                                             uint8_t register_address,
  89:I2C_Interface.c ****                                             uint8_t data)
  90:I2C_Interface.c ****     {
 212              		.loc 1 90 0
 213              		.cfi_startproc
 214              		@ args = 0, pretend = 0, frame = 0
 215              		@ frame_needed = 0, uses_anonymous_args = 0
 216              	.LVL20:
 217 0000 70B5     		push	{r4, r5, r6, lr}
 218              		.cfi_def_cfa_offset 16
 219              		.cfi_offset 4, -16
 220              		.cfi_offset 5, -12
 221              		.cfi_offset 6, -8
 222              		.cfi_offset 14, -4
 223 0002 0D46     		mov	r5, r1
 224 0004 1646     		mov	r6, r2
  91:I2C_Interface.c ****         // Send start condition
  92:I2C_Interface.c ****         uint8_t error = I2C_Master_MasterSendStart(device_address, I2C_Master_WRITE_XFER_MODE);
 225              		.loc 1 92 0
 226 0006 0021     		movs	r1, #0
 227              	.LVL21:
 228 0008 FFF7FEFF 		bl	I2C_Master_MasterSendStart
 229              	.LVL22:
  93:I2C_Interface.c ****         if (error == I2C_Master_MSTR_NO_ERROR)
 230              		.loc 1 93 0
 231 000c 0446     		mov	r4, r0
 232 000e 40B9     		cbnz	r0, .L15
  94:I2C_Interface.c ****         {
  95:I2C_Interface.c ****             // Write register address
  96:I2C_Interface.c ****             error = I2C_Master_MasterWriteByte(register_address);
 233              		.loc 1 96 0
 234 0010 2846     		mov	r0, r5
 235              	.LVL23:
 236 0012 FFF7FEFF 		bl	I2C_Master_MasterWriteByte
 237              	.LVL24:
  97:I2C_Interface.c ****             if (error == I2C_Master_MSTR_NO_ERROR)
 238              		.loc 1 97 0
 239 0016 0446     		mov	r4, r0
 240 0018 18B9     		cbnz	r0, .L15
  98:I2C_Interface.c ****             {
  99:I2C_Interface.c ****                 // Write byte of interest
ARM GAS  C:\Users\Lory\AppData\Local\Temp\ccx1uSkS.s 			page 7


 100:I2C_Interface.c ****                 error = I2C_Master_MasterWriteByte(data);
 241              		.loc 1 100 0
 242 001a 3046     		mov	r0, r6
 243              	.LVL25:
 244 001c FFF7FEFF 		bl	I2C_Master_MasterWriteByte
 245              	.LVL26:
 246 0020 0446     		mov	r4, r0
 247              	.LVL27:
 248              	.L15:
 101:I2C_Interface.c ****             }
 102:I2C_Interface.c ****         }
 103:I2C_Interface.c ****         // Send stop condition
 104:I2C_Interface.c ****         I2C_Master_MasterSendStop();
 249              		.loc 1 104 0
 250 0022 FFF7FEFF 		bl	I2C_Master_MasterSendStop
 251              	.LVL28:
 105:I2C_Interface.c ****         // Return error code
 106:I2C_Interface.c ****         return error ? ERROR : NO_ERROR;
 107:I2C_Interface.c ****     }
 252              		.loc 1 107 0
 253 0026 201C     		adds	r0, r4, #0
 254 0028 18BF     		it	ne
 255 002a 0120     		movne	r0, #1
 256 002c 70BD     		pop	{r4, r5, r6, pc}
 257              		.cfi_endproc
 258              	.LFE4:
 259              		.size	I2C_Peripheral_WriteRegister, .-I2C_Peripheral_WriteRegister
 260 002e 00BF     		.section	.text.I2C_Peripheral_WriteRegisterMulti,"ax",%progbits
 261              		.align	2
 262              		.global	I2C_Peripheral_WriteRegisterMulti
 263              		.thumb
 264              		.thumb_func
 265              		.type	I2C_Peripheral_WriteRegisterMulti, %function
 266              	I2C_Peripheral_WriteRegisterMulti:
 267              	.LFB5:
 108:I2C_Interface.c ****     
 109:I2C_Interface.c ****     ErrorCode I2C_Peripheral_WriteRegisterMulti(uint8_t device_address,
 110:I2C_Interface.c ****                                             uint8_t register_address,
 111:I2C_Interface.c ****                                             uint8_t register_count,
 112:I2C_Interface.c ****                                             uint8_t* data)
 113:I2C_Interface.c ****     {
 268              		.loc 1 113 0
 269              		.cfi_startproc
 270              		@ args = 0, pretend = 0, frame = 0
 271              		@ frame_needed = 0, uses_anonymous_args = 0
 272              	.LVL29:
 273 0000 2DE9F041 		push	{r4, r5, r6, r7, r8, lr}
 274              		.cfi_def_cfa_offset 24
 275              		.cfi_offset 4, -24
 276              		.cfi_offset 5, -20
 277              		.cfi_offset 6, -16
 278              		.cfi_offset 7, -12
 279              		.cfi_offset 8, -8
 280              		.cfi_offset 14, -4
 281 0004 8046     		mov	r8, r0
 282 0006 0F46     		mov	r7, r1
 283 0008 1546     		mov	r5, r2
ARM GAS  C:\Users\Lory\AppData\Local\Temp\ccx1uSkS.s 			page 8


 284 000a 1E46     		mov	r6, r3
 285              	.LVL30:
 286              	.LBB4:
 114:I2C_Interface.c ****         uint8_t error = ERROR;
 115:I2C_Interface.c ****         for (int i=0; i<register_count; i++)
 287              		.loc 1 115 0
 288 000c 0024     		movs	r4, #0
 289              	.LBE4:
 114:I2C_Interface.c ****         uint8_t error = ERROR;
 290              		.loc 1 114 0
 291 000e 0120     		movs	r0, #1
 292              	.LVL31:
 293              	.LBB5:
 294              		.loc 1 115 0
 295 0010 08E0     		b	.L18
 296              	.LVL32:
 297              	.L20:
 116:I2C_Interface.c ****         {
 117:I2C_Interface.c ****             error = I2C_Peripheral_WriteRegister(device_address,
 298              		.loc 1 117 0
 299 0012 3919     		adds	r1, r7, r4
 300 0014 325D     		ldrb	r2, [r6, r4]	@ zero_extendqisi2
 301 0016 C9B2     		uxtb	r1, r1
 302 0018 4046     		mov	r0, r8
 303              	.LVL33:
 304 001a FFF7FEFF 		bl	I2C_Peripheral_WriteRegister
 305              	.LVL34:
 118:I2C_Interface.c ****                                                  register_address+i*I2C_Master_SLAVE_ADDR_SHIFT,
 119:I2C_Interface.c ****                                                  *(data+i));
 120:I2C_Interface.c ****             if(error == ERROR)
 306              		.loc 1 120 0
 307 001e 0128     		cmp	r0, #1
 308 0020 05D0     		beq	.L19
 115:I2C_Interface.c ****         {
 309              		.loc 1 115 0 discriminator 2
 310 0022 0134     		adds	r4, r4, #1
 311              	.LVL35:
 312              	.L18:
 115:I2C_Interface.c ****         {
 313              		.loc 1 115 0 is_stmt 0 discriminator 1
 314 0024 AC42     		cmp	r4, r5
 315 0026 F4DB     		blt	.L20
 316              	.LBE5:
 121:I2C_Interface.c ****             {
 122:I2C_Interface.c ****                 return error;
 123:I2C_Interface.c ****             }
 124:I2C_Interface.c ****         }
 125:I2C_Interface.c ****         return error ? ERROR : NO_ERROR;    
 317              		.loc 1 125 0 is_stmt 1
 318 0028 0030     		adds	r0, r0, #0
 319              	.LVL36:
 320 002a 18BF     		it	ne
 321 002c 0120     		movne	r0, #1
 322              	.L19:
 126:I2C_Interface.c ****     }
 323              		.loc 1 126 0
 324 002e BDE8F081 		pop	{r4, r5, r6, r7, r8, pc}
ARM GAS  C:\Users\Lory\AppData\Local\Temp\ccx1uSkS.s 			page 9


 325              		.cfi_endproc
 326              	.LFE5:
 327              		.size	I2C_Peripheral_WriteRegisterMulti, .-I2C_Peripheral_WriteRegisterMulti
 328 0032 00BF     		.section	.text.I2C_Peripheral_IsDeviceConnected,"ax",%progbits
 329              		.align	2
 330              		.global	I2C_Peripheral_IsDeviceConnected
 331              		.thumb
 332              		.thumb_func
 333              		.type	I2C_Peripheral_IsDeviceConnected, %function
 334              	I2C_Peripheral_IsDeviceConnected:
 335              	.LFB6:
 127:I2C_Interface.c ****     
 128:I2C_Interface.c ****     
 129:I2C_Interface.c ****     uint8_t I2C_Peripheral_IsDeviceConnected(uint8_t device_address)
 130:I2C_Interface.c ****     {
 336              		.loc 1 130 0
 337              		.cfi_startproc
 338              		@ args = 0, pretend = 0, frame = 0
 339              		@ frame_needed = 0, uses_anonymous_args = 0
 340              	.LVL37:
 341 0000 10B5     		push	{r4, lr}
 342              		.cfi_def_cfa_offset 8
 343              		.cfi_offset 4, -8
 344              		.cfi_offset 14, -4
 131:I2C_Interface.c ****         // Send a start condition followed by a stop condition
 132:I2C_Interface.c ****         uint8_t error = I2C_Master_MasterSendStart(device_address, I2C_Master_WRITE_XFER_MODE);
 345              		.loc 1 132 0
 346 0002 0021     		movs	r1, #0
 347 0004 FFF7FEFF 		bl	I2C_Master_MasterSendStart
 348              	.LVL38:
 349 0008 0446     		mov	r4, r0
 350              	.LVL39:
 133:I2C_Interface.c ****         I2C_Master_MasterSendStop();
 351              		.loc 1 133 0
 352 000a FFF7FEFF 		bl	I2C_Master_MasterSendStop
 353              	.LVL40:
 134:I2C_Interface.c ****         // If no error generated during stop, device is connected
 135:I2C_Interface.c ****         if (error == I2C_Master_MSTR_NO_ERROR)
 354              		.loc 1 135 0
 355 000e 0CB9     		cbnz	r4, .L25
 136:I2C_Interface.c ****         {
 137:I2C_Interface.c ****             return DEVICE_CONNECTED;
 356              		.loc 1 137 0
 357 0010 0120     		movs	r0, #1
 358 0012 10BD     		pop	{r4, pc}
 359              	.LVL41:
 360              	.L25:
 138:I2C_Interface.c ****         }
 139:I2C_Interface.c ****         return DEVICE_UNCONNECTED;
 361              		.loc 1 139 0
 362 0014 0020     		movs	r0, #0
 140:I2C_Interface.c ****     }
 363              		.loc 1 140 0
 364 0016 10BD     		pop	{r4, pc}
 365              		.cfi_endproc
 366              	.LFE6:
 367              		.size	I2C_Peripheral_IsDeviceConnected, .-I2C_Peripheral_IsDeviceConnected
ARM GAS  C:\Users\Lory\AppData\Local\Temp\ccx1uSkS.s 			page 10


 368              		.text
 369              	.Letext0:
 370              		.file 2 "c:\\program files (x86)\\cypress\\psoc creator\\4.3\\psoc creator\\import\\gnu\\arm\\5.4.
 371              		.file 3 "c:\\program files (x86)\\cypress\\psoc creator\\4.3\\psoc creator\\import\\gnu\\arm\\5.4.
 372              		.file 4 "ErrorCodes.h"
 373              		.file 5 "Generated_Source\\PSoC5/I2C_Master.h"