ARM GAS  C:\Users\Lory\AppData\Local\Temp\ccWsrIlr.s 			page 1


   1              		.syntax unified
   2              		.cpu cortex-m3
   3              		.fpu softvfp
   4              		.eabi_attribute 20, 1
   5              		.eabi_attribute 21, 1
   6              		.eabi_attribute 23, 3
   7              		.eabi_attribute 24, 1
   8              		.eabi_attribute 25, 1
   9              		.eabi_attribute 26, 1
  10              		.eabi_attribute 30, 1
  11              		.eabi_attribute 34, 1
  12              		.eabi_attribute 18, 4
  13              		.thumb
  14              		.syntax unified
  15              		.file	"InterruptRoutines.c"
  16              		.text
  17              	.Ltext0:
  18              		.cfi_sections	.debug_frame
  19              		.global	__aeabi_i2f
  20              		.global	__aeabi_f2iz
  21              		.section	.text.ISR_ACC_CUSTOM,"ax",%progbits
  22              		.align	2
  23              		.global	ISR_ACC_CUSTOM
  24              		.thumb
  25              		.thumb_func
  26              		.type	ISR_ACC_CUSTOM, %function
  27              	ISR_ACC_CUSTOM:
  28              	.LFB63:
  29              		.file 1 "InterruptRoutines.c"
   1:InterruptRoutines.c **** /* ========================================
   2:InterruptRoutines.c ****  *
   3:InterruptRoutines.c ****  * In this file a custom interrupt is defined.
   4:InterruptRoutines.c ****  * The purpose of this ISR is to handle LIS3DH
   5:InterruptRoutines.c ****  * data retrieval, processing and packing.
   6:InterruptRoutines.c ****  * The ISR is syncronized with the data rate
   7:InterruptRoutines.c ****  * of the accelerometer and is triggered by a
   8:InterruptRoutines.c ****  * timer every 10ms (100Hz).
   9:InterruptRoutines.c ****  *
  10:InterruptRoutines.c ****  * -> Data retrieval (I2C): 
  11:InterruptRoutines.c ****  * Readings of inertial measurements is archived 
  12:InterruptRoutines.c ****  * using I2C communication. First the status 
  13:InterruptRoutines.c ****  * register is read to check for new available data,
  14:InterruptRoutines.c ****  * then low and high registers of the axis are
  15:InterruptRoutines.c ****  * retrieved and stored in a temporary uint8 buffer.
  16:InterruptRoutines.c ****  *
  17:InterruptRoutines.c ****  * -> Data processing:
  18:InterruptRoutines.c ****  * Low and high registers are merged together, then right
  19:InterruptRoutines.c ****  * adjusted and stored in a signed 16-bit integer variable.
  20:InterruptRoutines.c ****  * Being the measurement a signed 12-bit value, it ranges
  21:InterruptRoutines.c ****  * from -2048 to 2047, representing an FSR of +-4g units. 
  22:InterruptRoutines.c ****  * The value is then converted in um/s^2 units 
  23:InterruptRoutines.c ****  * (10^-6 * m/s^2) without losing data precision.
  24:InterruptRoutines.c ****  *
  25:InterruptRoutines.c ****  * -> Data packing:
  26:InterruptRoutines.c ****  * All 3 axes processed measurements are divided in 4 chunks
  27:InterruptRoutines.c ****  * of 8-bit data each and placed in a buffer as follows:
  28:InterruptRoutines.c ****  * 
ARM GAS  C:\Users\Lory\AppData\Local\Temp\ccWsrIlr.s 			page 2


  29:InterruptRoutines.c ****  * DATA = [         HEADER        |  8-bit
  30:InterruptRoutines.c ****  *        | X_1 | X_2 | X_3 | X_4 | 32-bit
  31:InterruptRoutines.c ****  *        | Y_1 | Y_2 | Y_3 | Y_4 | 32-bit
  32:InterruptRoutines.c ****  *        | Z_1 | Z_2 | Z_3 | Z_4 | 32-bit
  33:InterruptRoutines.c ****  *        |          TAIL         ]  8-bit 
  34:InterruptRoutines.c ****  *
  35:InterruptRoutines.c ****  * for a total length of 112 bit of new data available 
  36:InterruptRoutines.c ****  * for UART transmission every 10ms.
  37:InterruptRoutines.c ****  *
  38:InterruptRoutines.c ****  * ========================================
  39:InterruptRoutines.c **** */
  40:InterruptRoutines.c **** 
  41:InterruptRoutines.c **** 
  42:InterruptRoutines.c **** /* Include project dependencies. */
  43:InterruptRoutines.c **** #include "InterruptRoutines.h"
  44:InterruptRoutines.c **** 
  45:InterruptRoutines.c **** 
  46:InterruptRoutines.c **** /* Custom ISR function to read, process and pack LIS3DH inertial measurements data. */
  47:InterruptRoutines.c **** CY_ISR(ISR_ACC_CUSTOM)
  48:InterruptRoutines.c **** {
  30              		.loc 1 48 0
  31              		.cfi_startproc
  32              		@ args = 0, pretend = 0, frame = 0
  33              		@ frame_needed = 0, uses_anonymous_args = 0
  34 0000 70B5     		push	{r4, r5, r6, lr}
  35              		.cfi_def_cfa_offset 16
  36              		.cfi_offset 4, -16
  37              		.cfi_offset 5, -12
  38              		.cfi_offset 6, -8
  39              		.cfi_offset 14, -4
  40 0002 82B0     		sub	sp, sp, #8
  41              		.cfi_def_cfa_offset 24
  49:InterruptRoutines.c ****     /* Bring interrupt line low. */
  50:InterruptRoutines.c ****     ISR_Timer_ReadStatusRegister();
  42              		.loc 1 50 0
  43 0004 FFF7FEFF 		bl	ISR_Timer_ReadStatusRegister
  44              	.LVL0:
  51:InterruptRoutines.c **** 
  52:InterruptRoutines.c ****     /* Read accelerometer status register. */
  53:InterruptRoutines.c ****     error = I2C_Peripheral_ReadRegister(LIS3DH_DEVICE_ADDRESS, LIS3DH_STATUS_REG, &statusReg);
  45              		.loc 1 53 0
  46 0008 394A     		ldr	r2, .L4
  47 000a 2721     		movs	r1, #39
  48 000c 1820     		movs	r0, #24
  49 000e FFF7FEFF 		bl	I2C_Peripheral_ReadRegister
  50              	.LVL1:
  51 0012 384B     		ldr	r3, .L4+4
  52 0014 1870     		strb	r0, [r3]
  54:InterruptRoutines.c ****     if (error == ERROR) return; // If error occurs return from the function
  53              		.loc 1 54 0
  54 0016 0128     		cmp	r0, #1
  55 0018 68D0     		beq	.L1
  55:InterruptRoutines.c ****     
  56:InterruptRoutines.c ****     /* If 3-axes accelerometer data is ready for reading. */
  57:InterruptRoutines.c ****     if ((statusReg & LIS3DH_DATA_READY_MASK) == LIS3DH_DATA_READY_MASK)
  56              		.loc 1 57 0
  57 001a 354B     		ldr	r3, .L4
ARM GAS  C:\Users\Lory\AppData\Local\Temp\ccWsrIlr.s 			page 3


  58 001c 1B78     		ldrb	r3, [r3]	@ zero_extendqisi2
  59 001e 13F0080F 		tst	r3, #8
  60 0022 63D0     		beq	.L1
  61              	.LBB2:
  58:InterruptRoutines.c ****     {
  59:InterruptRoutines.c ****         /* 
  60:InterruptRoutines.c ****          * Read X axis values over I2C communication and process the data. 
  61:InterruptRoutines.c ****          */ 
  62:InterruptRoutines.c ****         error = I2C_Peripheral_ReadRegisterMulti(LIS3DH_DEVICE_ADDRESS, LIS3DH_OUT_X_L, 2, &tempBuf
  62              		.loc 1 62 0
  63 0024 344B     		ldr	r3, .L4+8
  64 0026 0222     		movs	r2, #2
  65 0028 2821     		movs	r1, #40
  66 002a 1820     		movs	r0, #24
  67 002c FFF7FEFF 		bl	I2C_Peripheral_ReadRegisterMulti
  68              	.LVL2:
  69 0030 304B     		ldr	r3, .L4+4
  70 0032 1870     		strb	r0, [r3]
  63:InterruptRoutines.c ****         if (error == ERROR) return; // If error occurs return from the function
  71              		.loc 1 63 0
  72 0034 0128     		cmp	r0, #1
  73 0036 59D0     		beq	.L1
  64:InterruptRoutines.c ****         int32_t xAxis = RightAdjustVal(tempBuffer, true, 4); // Merge X axis low and high registers
  74              		.loc 1 64 0
  75 0038 2F4C     		ldr	r4, .L4+8
  76 003a 0422     		movs	r2, #4
  77 003c 0121     		movs	r1, #1
  78 003e 2046     		mov	r0, r4
  79 0040 FFF7FEFF 		bl	RightAdjustVal
  80              	.LVL3:
  65:InterruptRoutines.c ****         xAxis = MinMaxScaler(xAxis, -ACC_RAW_SCALE, ACC_RAW_SCALE, -ACC_UMS2_SCALE, ACC_UMS2_SCALE)
  81              		.loc 1 65 0
  82 0044 FFF7FEFF 		bl	__aeabi_i2f
  83              	.LVL4:
  84 0048 2C4B     		ldr	r3, .L4+12
  85 004a 0093     		str	r3, [sp]	@ float
  86 004c 2C4B     		ldr	r3, .L4+16
  87 004e 4FF08A42 		mov	r2, #1157627904
  88 0052 4FF04541 		mov	r1, #-989855744
  89 0056 FFF7FEFF 		bl	MinMaxScaler
  90              	.LVL5:
  91 005a FFF7FEFF 		bl	__aeabi_f2iz
  92              	.LVL6:
  93 005e 0546     		mov	r5, r0
  94              	.LVL7:
  66:InterruptRoutines.c ****         
  67:InterruptRoutines.c ****         /* 
  68:InterruptRoutines.c ****          * Read Y axis values over I2C communication and process the data. 
  69:InterruptRoutines.c ****          */
  70:InterruptRoutines.c ****         error = I2C_Peripheral_ReadRegisterMulti(LIS3DH_DEVICE_ADDRESS, LIS3DH_OUT_Y_L, 2, &tempBuf
  95              		.loc 1 70 0
  96 0060 2346     		mov	r3, r4
  97 0062 0222     		movs	r2, #2
  98 0064 2A21     		movs	r1, #42
  99 0066 1820     		movs	r0, #24
 100              	.LVL8:
 101 0068 FFF7FEFF 		bl	I2C_Peripheral_ReadRegisterMulti
ARM GAS  C:\Users\Lory\AppData\Local\Temp\ccWsrIlr.s 			page 4


 102              	.LVL9:
 103 006c 214B     		ldr	r3, .L4+4
 104 006e 1870     		strb	r0, [r3]
  71:InterruptRoutines.c ****         if (error == ERROR) return; // If error occurs return from the function
 105              		.loc 1 71 0
 106 0070 0128     		cmp	r0, #1
 107 0072 3BD0     		beq	.L1
  72:InterruptRoutines.c ****         int32_t yAxis = RightAdjustVal(tempBuffer, true, 4); // Merge Y axis low and high registers
 108              		.loc 1 72 0
 109 0074 0422     		movs	r2, #4
 110 0076 0121     		movs	r1, #1
 111 0078 2046     		mov	r0, r4
 112 007a FFF7FEFF 		bl	RightAdjustVal
 113              	.LVL10:
  73:InterruptRoutines.c ****         yAxis = MinMaxScaler(yAxis, -ACC_RAW_SCALE, ACC_RAW_SCALE, -ACC_UMS2_SCALE, ACC_UMS2_SCALE)
 114              		.loc 1 73 0
 115 007e FFF7FEFF 		bl	__aeabi_i2f
 116              	.LVL11:
 117 0082 1E4B     		ldr	r3, .L4+12
 118 0084 0093     		str	r3, [sp]	@ float
 119 0086 1E4B     		ldr	r3, .L4+16
 120 0088 4FF08A42 		mov	r2, #1157627904
 121 008c 4FF04541 		mov	r1, #-989855744
 122 0090 FFF7FEFF 		bl	MinMaxScaler
 123              	.LVL12:
 124 0094 FFF7FEFF 		bl	__aeabi_f2iz
 125              	.LVL13:
 126 0098 0646     		mov	r6, r0
 127              	.LVL14:
  74:InterruptRoutines.c ****         
  75:InterruptRoutines.c ****         /* 
  76:InterruptRoutines.c ****          * Read Z axis values over I2C communication and process the data. 
  77:InterruptRoutines.c ****          */
  78:InterruptRoutines.c ****         error = I2C_Peripheral_ReadRegisterMulti(LIS3DH_DEVICE_ADDRESS, LIS3DH_OUT_Z_L, 2, &tempBuf
 128              		.loc 1 78 0
 129 009a 2346     		mov	r3, r4
 130 009c 0222     		movs	r2, #2
 131 009e 2C21     		movs	r1, #44
 132 00a0 1820     		movs	r0, #24
 133              	.LVL15:
 134 00a2 FFF7FEFF 		bl	I2C_Peripheral_ReadRegisterMulti
 135              	.LVL16:
 136 00a6 134B     		ldr	r3, .L4+4
 137 00a8 1870     		strb	r0, [r3]
  79:InterruptRoutines.c ****         if (error == ERROR) return; // If error occurs return from the function
 138              		.loc 1 79 0
 139 00aa 0128     		cmp	r0, #1
 140 00ac 1ED0     		beq	.L1
  80:InterruptRoutines.c ****         int32_t zAxis = RightAdjustVal(tempBuffer, true, 4); // Merge Z axis low and high registers
 141              		.loc 1 80 0
 142 00ae 0422     		movs	r2, #4
 143 00b0 0121     		movs	r1, #1
 144 00b2 2046     		mov	r0, r4
 145 00b4 FFF7FEFF 		bl	RightAdjustVal
 146              	.LVL17:
  81:InterruptRoutines.c ****         zAxis = MinMaxScaler(zAxis, -ACC_RAW_SCALE, ACC_RAW_SCALE, -ACC_UMS2_SCALE, ACC_UMS2_SCALE)
 147              		.loc 1 81 0
ARM GAS  C:\Users\Lory\AppData\Local\Temp\ccWsrIlr.s 			page 5


 148 00b8 FFF7FEFF 		bl	__aeabi_i2f
 149              	.LVL18:
 150 00bc 0F4B     		ldr	r3, .L4+12
 151 00be 0093     		str	r3, [sp]	@ float
 152 00c0 0F4B     		ldr	r3, .L4+16
 153 00c2 4FF08A42 		mov	r2, #1157627904
 154 00c6 4FF04541 		mov	r1, #-989855744
 155 00ca FFF7FEFF 		bl	MinMaxScaler
 156              	.LVL19:
 157 00ce FFF7FEFF 		bl	__aeabi_f2iz
 158              	.LVL20:
  82:InterruptRoutines.c ****         
  83:InterruptRoutines.c ****         /* 
  84:InterruptRoutines.c ****          * Load 112-bit message containing all axes data to be send in main function over UART comm
  85:InterruptRoutines.c ****          */
  86:InterruptRoutines.c ****         LoadAxesData(dataBuffer, xAxis, yAxis, zAxis, DATA_BUFFER_HEADER, DATA_BUFFER_TAIL);
 159              		.loc 1 86 0
 160 00d2 F023     		movs	r3, #240
 161 00d4 0193     		str	r3, [sp, #4]
 162 00d6 7023     		movs	r3, #112
 163 00d8 0093     		str	r3, [sp]
 164 00da 0346     		mov	r3, r0
 165 00dc 3246     		mov	r2, r6
 166 00de 2946     		mov	r1, r5
 167 00e0 0848     		ldr	r0, .L4+20
 168              	.LVL21:
 169 00e2 FFF7FEFF 		bl	LoadAxesData
 170              	.LVL22:
  87:InterruptRoutines.c ****         packetReadyFlag = true; // New data ready for transmission
 171              		.loc 1 87 0
 172 00e6 0122     		movs	r2, #1
 173 00e8 074B     		ldr	r3, .L4+24
 174 00ea 1A70     		strb	r2, [r3]
 175              	.LVL23:
 176              	.L1:
 177              	.LBE2:
  88:InterruptRoutines.c ****     }
  89:InterruptRoutines.c **** }
 178              		.loc 1 89 0
 179 00ec 02B0     		add	sp, sp, #8
 180              		.cfi_def_cfa_offset 16
 181              		@ sp needed
 182 00ee 70BD     		pop	{r4, r5, r6, pc}
 183              	.L5:
 184              		.align	2
 185              	.L4:
 186 00f0 00000000 		.word	statusReg
 187 00f4 00000000 		.word	error
 188 00f8 00000000 		.word	tempBuffer
 189 00fc 3AA3154C 		.word	1276486458
 190 0100 3AA315CC 		.word	-870997190
 191 0104 00000000 		.word	dataBuffer
 192 0108 00000000 		.word	packetReadyFlag
 193              		.cfi_endproc
 194              	.LFE63:
 195              		.size	ISR_ACC_CUSTOM, .-ISR_ACC_CUSTOM
 196              		.comm	error,1,1
ARM GAS  C:\Users\Lory\AppData\Local\Temp\ccWsrIlr.s 			page 6


 197              		.comm	statusReg,1,1
 198              		.comm	packetReadyFlag,1,1
 199              		.comm	tempBuffer,2,4
 200              		.comm	dataBuffer,14,4
 201              		.text
 202              	.Letext0:
 203              		.file 2 "c:\\program files (x86)\\cypress\\psoc creator\\4.3\\psoc creator\\import\\gnu\\arm\\5.4.
 204              		.file 3 "c:\\program files (x86)\\cypress\\psoc creator\\4.3\\psoc creator\\import\\gnu\\arm\\5.4.
 205              		.file 4 "Generated_Source\\PSoC5/cytypes.h"
 206              		.file 5 "ErrorCodes.h"
 207              		.file 6 "Generated_Source\\PSoC5/core_cm3.h"
 208              		.file 7 "InterruptRoutines.h"
 209              		.file 8 "I2C_Interface.h"
 210              		.file 9 "AccelUtils.h"
 211              		.file 10 "Generated_Source\\PSoC5/ISR_Timer.h"