ARM GAS  C:\Users\Gabriele\AppData\Local\Temp\ccXd4RRi.s 			page 1


   1              		.syntax unified
   2              		.cpu cortex-m3
   3              		.fpu softvfp
   4              		.eabi_attribute 20, 1
   5              		.eabi_attribute 21, 1
   6              		.eabi_attribute 23, 3
   7              		.eabi_attribute 24, 1
   8              		.eabi_attribute 25, 1
   9              		.eabi_attribute 26, 1
  10              		.eabi_attribute 30, 1
  11              		.eabi_attribute 34, 1
  12              		.eabi_attribute 18, 4
  13              		.thumb
  14              		.syntax unified
  15              		.file	"I2C_Interface.c"
  16              		.text
  17              	.Ltext0:
  18              		.cfi_sections	.debug_frame
  19              		.section	.text.I2C_Peripheral_Start,"ax",%progbits
  20              		.align	2
  21              		.global	I2C_Peripheral_Start
  22              		.thumb
  23              		.thumb_func
  24              		.type	I2C_Peripheral_Start, %function
  25              	I2C_Peripheral_Start:
  26              	.LFB0:
  27              		.file 1 "I2C_Interface.c"
   1:I2C_Interface.c **** /*
   2:I2C_Interface.c **** * This file includes all the required source code to interface
   3:I2C_Interface.c **** * the I2C peripheral.
   4:I2C_Interface.c **** */
   5:I2C_Interface.c **** 
   6:I2C_Interface.c **** /**
   7:I2C_Interface.c **** *   \brief Value returned if device present on I2C bus.
   8:I2C_Interface.c **** */
   9:I2C_Interface.c **** #ifndef DEVICE_CONNECTED
  10:I2C_Interface.c ****     #define DEVICE_CONNECTED 1
  11:I2C_Interface.c **** #endif
  12:I2C_Interface.c **** 
  13:I2C_Interface.c **** /**
  14:I2C_Interface.c **** *   \brief Value returned if device not present on I2C bus.
  15:I2C_Interface.c **** */
  16:I2C_Interface.c **** #ifndef DEVICE_UNCONNECTED
  17:I2C_Interface.c ****     #define DEVICE_UNCONNECTED 0
  18:I2C_Interface.c **** #endif
  19:I2C_Interface.c **** 
  20:I2C_Interface.c **** #include "I2C_Interface.h" 
  21:I2C_Interface.c **** #include "I2C_Master.h"
  22:I2C_Interface.c **** 
  23:I2C_Interface.c ****     ErrorCode I2C_Peripheral_Start(void) 
  24:I2C_Interface.c ****     {
  28              		.loc 1 24 0
  29              		.cfi_startproc
  30              		@ args = 0, pretend = 0, frame = 0
  31              		@ frame_needed = 0, uses_anonymous_args = 0
  32 0000 08B5     		push	{r3, lr}
  33              		.cfi_def_cfa_offset 8
ARM GAS  C:\Users\Gabriele\AppData\Local\Temp\ccXd4RRi.s 			page 2


  34              		.cfi_offset 3, -8
  35              		.cfi_offset 14, -4
  25:I2C_Interface.c ****         // Start I2C peripheral
  26:I2C_Interface.c ****         I2C_Master_Start();  
  36              		.loc 1 26 0
  37 0002 FFF7FEFF 		bl	I2C_Master_Start
  38              	.LVL0:
  27:I2C_Interface.c ****         
  28:I2C_Interface.c ****         // Return no error since start function does not return any error
  29:I2C_Interface.c ****         return NO_ERROR;
  30:I2C_Interface.c ****     }
  39              		.loc 1 30 0
  40 0006 0020     		movs	r0, #0
  41 0008 08BD     		pop	{r3, pc}
  42              		.cfi_endproc
  43              	.LFE0:
  44              		.size	I2C_Peripheral_Start, .-I2C_Peripheral_Start
  45 000a 00BF     		.section	.text.I2C_Peripheral_Stop,"ax",%progbits
  46              		.align	2
  47              		.global	I2C_Peripheral_Stop
  48              		.thumb
  49              		.thumb_func
  50              		.type	I2C_Peripheral_Stop, %function
  51              	I2C_Peripheral_Stop:
  52              	.LFB1:
  31:I2C_Interface.c ****     
  32:I2C_Interface.c ****     
  33:I2C_Interface.c ****     ErrorCode I2C_Peripheral_Stop(void)
  34:I2C_Interface.c ****     {
  53              		.loc 1 34 0
  54              		.cfi_startproc
  55              		@ args = 0, pretend = 0, frame = 0
  56              		@ frame_needed = 0, uses_anonymous_args = 0
  57 0000 08B5     		push	{r3, lr}
  58              		.cfi_def_cfa_offset 8
  59              		.cfi_offset 3, -8
  60              		.cfi_offset 14, -4
  35:I2C_Interface.c ****         // Stop I2C peripheral
  36:I2C_Interface.c ****         I2C_Master_Stop();
  61              		.loc 1 36 0
  62 0002 FFF7FEFF 		bl	I2C_Master_Stop
  63              	.LVL1:
  37:I2C_Interface.c ****         // Return no error since stop function does not return any error
  38:I2C_Interface.c ****         return NO_ERROR;
  39:I2C_Interface.c ****     }
  64              		.loc 1 39 0
  65 0006 0020     		movs	r0, #0
  66 0008 08BD     		pop	{r3, pc}
  67              		.cfi_endproc
  68              	.LFE1:
  69              		.size	I2C_Peripheral_Stop, .-I2C_Peripheral_Stop
  70 000a 00BF     		.section	.text.I2C_Peripheral_ReadRegister,"ax",%progbits
  71              		.align	2
  72              		.global	I2C_Peripheral_ReadRegister
  73              		.thumb
  74              		.thumb_func
  75              		.type	I2C_Peripheral_ReadRegister, %function
ARM GAS  C:\Users\Gabriele\AppData\Local\Temp\ccXd4RRi.s 			page 3


  76              	I2C_Peripheral_ReadRegister:
  77              	.LFB2:
  40:I2C_Interface.c **** 
  41:I2C_Interface.c ****     ErrorCode I2C_Peripheral_ReadRegister(uint8_t device_address, 
  42:I2C_Interface.c ****                                             uint8_t register_address,
  43:I2C_Interface.c ****                                             uint8_t* data)
  44:I2C_Interface.c ****     {
  78              		.loc 1 44 0
  79              		.cfi_startproc
  80              		@ args = 0, pretend = 0, frame = 0
  81              		@ frame_needed = 0, uses_anonymous_args = 0
  82              	.LVL2:
  83 0000 F8B5     		push	{r3, r4, r5, r6, r7, lr}
  84              		.cfi_def_cfa_offset 24
  85              		.cfi_offset 3, -24
  86              		.cfi_offset 4, -20
  87              		.cfi_offset 5, -16
  88              		.cfi_offset 6, -12
  89              		.cfi_offset 7, -8
  90              		.cfi_offset 14, -4
  91 0002 0646     		mov	r6, r0
  92 0004 0D46     		mov	r5, r1
  93 0006 1746     		mov	r7, r2
  45:I2C_Interface.c ****         // Send start condition
  46:I2C_Interface.c ****         uint8_t error = I2C_Master_MasterSendStart(device_address,I2C_Master_WRITE_XFER_MODE);
  94              		.loc 1 46 0
  95 0008 0021     		movs	r1, #0
  96              	.LVL3:
  97 000a FFF7FEFF 		bl	I2C_Master_MasterSendStart
  98              	.LVL4:
  47:I2C_Interface.c ****         if (error == I2C_Master_MSTR_NO_ERROR)
  99              		.loc 1 47 0
 100 000e 0446     		mov	r4, r0
 101 0010 68B9     		cbnz	r0, .L6
  48:I2C_Interface.c ****         {
  49:I2C_Interface.c ****             // Write address of register to be read
  50:I2C_Interface.c ****             error = I2C_Master_MasterWriteByte(register_address);
 102              		.loc 1 50 0
 103 0012 2846     		mov	r0, r5
 104              	.LVL5:
 105 0014 FFF7FEFF 		bl	I2C_Master_MasterWriteByte
 106              	.LVL6:
  51:I2C_Interface.c ****             if (error == I2C_Master_MSTR_NO_ERROR)
 107              		.loc 1 51 0
 108 0018 0446     		mov	r4, r0
 109 001a 40B9     		cbnz	r0, .L6
  52:I2C_Interface.c ****             {
  53:I2C_Interface.c ****                 // Send restart condition
  54:I2C_Interface.c ****                 error = I2C_Master_MasterSendRestart(device_address, I2C_Master_READ_XFER_MODE);
 110              		.loc 1 54 0
 111 001c 0121     		movs	r1, #1
 112 001e 3046     		mov	r0, r6
 113              	.LVL7:
 114 0020 FFF7FEFF 		bl	I2C_Master_MasterSendRestart
 115              	.LVL8:
  55:I2C_Interface.c ****                 if (error == I2C_Master_MSTR_NO_ERROR)
 116              		.loc 1 55 0
ARM GAS  C:\Users\Gabriele\AppData\Local\Temp\ccXd4RRi.s 			page 4


 117 0024 0446     		mov	r4, r0
 118 0026 10B9     		cbnz	r0, .L6
  56:I2C_Interface.c ****                 {
  57:I2C_Interface.c ****                     // Read data without acknowledgement
  58:I2C_Interface.c ****                     *data = I2C_Master_MasterReadByte(I2C_Master_NAK_DATA);
 119              		.loc 1 58 0
 120 0028 FFF7FEFF 		bl	I2C_Master_MasterReadByte
 121              	.LVL9:
 122 002c 3870     		strb	r0, [r7]
 123              	.L6:
 124              	.LVL10:
  59:I2C_Interface.c ****                 }
  60:I2C_Interface.c ****             }
  61:I2C_Interface.c ****         }
  62:I2C_Interface.c ****         // Send stop condition
  63:I2C_Interface.c ****         I2C_Master_MasterSendStop();
 125              		.loc 1 63 0
 126 002e FFF7FEFF 		bl	I2C_Master_MasterSendStop
 127              	.LVL11:
  64:I2C_Interface.c ****         // Return error code
  65:I2C_Interface.c ****         return error ? ERROR : NO_ERROR;
  66:I2C_Interface.c ****     }
 128              		.loc 1 66 0
 129 0032 201C     		adds	r0, r4, #0
 130 0034 18BF     		it	ne
 131 0036 0120     		movne	r0, #1
 132 0038 F8BD     		pop	{r3, r4, r5, r6, r7, pc}
 133              		.cfi_endproc
 134              	.LFE2:
 135              		.size	I2C_Peripheral_ReadRegister, .-I2C_Peripheral_ReadRegister
 136 003a 00BF     		.section	.text.I2C_Peripheral_ReadRegisterMulti,"ax",%progbits
 137              		.align	2
 138              		.global	I2C_Peripheral_ReadRegisterMulti
 139              		.thumb
 140              		.thumb_func
 141              		.type	I2C_Peripheral_ReadRegisterMulti, %function
 142              	I2C_Peripheral_ReadRegisterMulti:
 143              	.LFB3:
  67:I2C_Interface.c ****     
  68:I2C_Interface.c ****     ErrorCode I2C_Peripheral_ReadRegisterMulti(uint8_t device_address,
  69:I2C_Interface.c ****                                                 uint8_t register_address,
  70:I2C_Interface.c ****                                                 uint8_t register_count,
  71:I2C_Interface.c ****                                                 uint8_t* data)
  72:I2C_Interface.c ****     {
 144              		.loc 1 72 0
 145              		.cfi_startproc
 146              		@ args = 0, pretend = 0, frame = 0
 147              		@ frame_needed = 0, uses_anonymous_args = 0
 148              		@ link register save eliminated.
 149              	.LVL12:
 150              	.LVL13:
  73:I2C_Interface.c ****         //TODO
  74:I2C_Interface.c ****     }
 151              		.loc 1 74 0
 152 0000 7047     		bx	lr
 153              		.cfi_endproc
 154              	.LFE3:
ARM GAS  C:\Users\Gabriele\AppData\Local\Temp\ccXd4RRi.s 			page 5


 155              		.size	I2C_Peripheral_ReadRegisterMulti, .-I2C_Peripheral_ReadRegisterMulti
 156 0002 00BF     		.section	.text.I2C_Peripheral_WriteRegister,"ax",%progbits
 157              		.align	2
 158              		.global	I2C_Peripheral_WriteRegister
 159              		.thumb
 160              		.thumb_func
 161              		.type	I2C_Peripheral_WriteRegister, %function
 162              	I2C_Peripheral_WriteRegister:
 163              	.LFB4:
  75:I2C_Interface.c ****     
  76:I2C_Interface.c ****     ErrorCode I2C_Peripheral_WriteRegister(uint8_t device_address,
  77:I2C_Interface.c ****                                             uint8_t register_address,
  78:I2C_Interface.c ****                                             uint8_t data)
  79:I2C_Interface.c ****     {
 164              		.loc 1 79 0
 165              		.cfi_startproc
 166              		@ args = 0, pretend = 0, frame = 0
 167              		@ frame_needed = 0, uses_anonymous_args = 0
 168              	.LVL14:
 169 0000 70B5     		push	{r4, r5, r6, lr}
 170              		.cfi_def_cfa_offset 16
 171              		.cfi_offset 4, -16
 172              		.cfi_offset 5, -12
 173              		.cfi_offset 6, -8
 174              		.cfi_offset 14, -4
 175 0002 0D46     		mov	r5, r1
 176 0004 1646     		mov	r6, r2
  80:I2C_Interface.c ****         // Send start condition
  81:I2C_Interface.c ****         uint8_t error = I2C_Master_MasterSendStart(device_address, I2C_Master_WRITE_XFER_MODE);
 177              		.loc 1 81 0
 178 0006 0021     		movs	r1, #0
 179              	.LVL15:
 180 0008 FFF7FEFF 		bl	I2C_Master_MasterSendStart
 181              	.LVL16:
  82:I2C_Interface.c ****         if (error == I2C_Master_MSTR_NO_ERROR)
 182              		.loc 1 82 0
 183 000c 0446     		mov	r4, r0
 184 000e 40B9     		cbnz	r0, .L10
  83:I2C_Interface.c ****         {
  84:I2C_Interface.c ****             // Write register address
  85:I2C_Interface.c ****             error = I2C_Master_MasterWriteByte(register_address);
 185              		.loc 1 85 0
 186 0010 2846     		mov	r0, r5
 187              	.LVL17:
 188 0012 FFF7FEFF 		bl	I2C_Master_MasterWriteByte
 189              	.LVL18:
  86:I2C_Interface.c ****             if (error == I2C_Master_MSTR_NO_ERROR)
 190              		.loc 1 86 0
 191 0016 0446     		mov	r4, r0
 192 0018 18B9     		cbnz	r0, .L10
  87:I2C_Interface.c ****             {
  88:I2C_Interface.c ****                 // Write byte of interest
  89:I2C_Interface.c ****                 error = I2C_Master_MasterWriteByte(data);
 193              		.loc 1 89 0
 194 001a 3046     		mov	r0, r6
 195              	.LVL19:
 196 001c FFF7FEFF 		bl	I2C_Master_MasterWriteByte
ARM GAS  C:\Users\Gabriele\AppData\Local\Temp\ccXd4RRi.s 			page 6


 197              	.LVL20:
 198 0020 0446     		mov	r4, r0
 199              	.LVL21:
 200              	.L10:
  90:I2C_Interface.c ****             }
  91:I2C_Interface.c ****         }
  92:I2C_Interface.c ****         // Send stop condition
  93:I2C_Interface.c ****         I2C_Master_MasterSendStop();
 201              		.loc 1 93 0
 202 0022 FFF7FEFF 		bl	I2C_Master_MasterSendStop
 203              	.LVL22:
  94:I2C_Interface.c ****         // Return error code
  95:I2C_Interface.c ****         return error ? ERROR : NO_ERROR;
  96:I2C_Interface.c ****     }
 204              		.loc 1 96 0
 205 0026 201C     		adds	r0, r4, #0
 206 0028 18BF     		it	ne
 207 002a 0120     		movne	r0, #1
 208 002c 70BD     		pop	{r4, r5, r6, pc}
 209              		.cfi_endproc
 210              	.LFE4:
 211              		.size	I2C_Peripheral_WriteRegister, .-I2C_Peripheral_WriteRegister
 212 002e 00BF     		.section	.text.I2C_Peripheral_WriteRegisterMulti,"ax",%progbits
 213              		.align	2
 214              		.global	I2C_Peripheral_WriteRegisterMulti
 215              		.thumb
 216              		.thumb_func
 217              		.type	I2C_Peripheral_WriteRegisterMulti, %function
 218              	I2C_Peripheral_WriteRegisterMulti:
 219              	.LFB5:
  97:I2C_Interface.c ****     
  98:I2C_Interface.c ****     ErrorCode I2C_Peripheral_WriteRegisterMulti(uint8_t device_address,
  99:I2C_Interface.c ****                                             uint8_t register_address,
 100:I2C_Interface.c ****                                             uint8_t register_count,
 101:I2C_Interface.c ****                                             uint8_t* data)
 102:I2C_Interface.c ****     {
 220              		.loc 1 102 0
 221              		.cfi_startproc
 222              		@ args = 0, pretend = 0, frame = 0
 223              		@ frame_needed = 0, uses_anonymous_args = 0
 224              		@ link register save eliminated.
 225              	.LVL23:
 226              	.LVL24:
 103:I2C_Interface.c ****         //TODO
 104:I2C_Interface.c ****     }
 227              		.loc 1 104 0
 228 0000 7047     		bx	lr
 229              		.cfi_endproc
 230              	.LFE5:
 231              		.size	I2C_Peripheral_WriteRegisterMulti, .-I2C_Peripheral_WriteRegisterMulti
 232 0002 00BF     		.section	.text.I2C_Peripheral_IsDeviceConnected,"ax",%progbits
 233              		.align	2
 234              		.global	I2C_Peripheral_IsDeviceConnected
 235              		.thumb
 236              		.thumb_func
 237              		.type	I2C_Peripheral_IsDeviceConnected, %function
 238              	I2C_Peripheral_IsDeviceConnected:
ARM GAS  C:\Users\Gabriele\AppData\Local\Temp\ccXd4RRi.s 			page 7


 239              	.LFB6:
 105:I2C_Interface.c ****     
 106:I2C_Interface.c ****     
 107:I2C_Interface.c ****     uint8_t I2C_Peripheral_IsDeviceConnected(uint8_t device_address)
 108:I2C_Interface.c ****     {
 240              		.loc 1 108 0
 241              		.cfi_startproc
 242              		@ args = 0, pretend = 0, frame = 0
 243              		@ frame_needed = 0, uses_anonymous_args = 0
 244              	.LVL25:
 245 0000 10B5     		push	{r4, lr}
 246              		.cfi_def_cfa_offset 8
 247              		.cfi_offset 4, -8
 248              		.cfi_offset 14, -4
 109:I2C_Interface.c ****         // Send a start condition followed by a stop condition
 110:I2C_Interface.c ****         uint8_t error = I2C_Master_MasterSendStart(device_address, I2C_Master_WRITE_XFER_MODE);
 249              		.loc 1 110 0
 250 0002 0021     		movs	r1, #0
 251 0004 FFF7FEFF 		bl	I2C_Master_MasterSendStart
 252              	.LVL26:
 253 0008 0446     		mov	r4, r0
 254              	.LVL27:
 111:I2C_Interface.c ****         I2C_Master_MasterSendStop();
 255              		.loc 1 111 0
 256 000a FFF7FEFF 		bl	I2C_Master_MasterSendStop
 257              	.LVL28:
 112:I2C_Interface.c ****         // If no error generated during stop, device is connected
 113:I2C_Interface.c ****         if (error == I2C_Master_MSTR_NO_ERROR)
 258              		.loc 1 113 0
 259 000e 0CB9     		cbnz	r4, .L15
 114:I2C_Interface.c ****         {
 115:I2C_Interface.c ****             return DEVICE_CONNECTED;
 260              		.loc 1 115 0
 261 0010 0120     		movs	r0, #1
 262 0012 10BD     		pop	{r4, pc}
 263              	.LVL29:
 264              	.L15:
 116:I2C_Interface.c ****         }
 117:I2C_Interface.c ****         return DEVICE_UNCONNECTED;
 265              		.loc 1 117 0
 266 0014 0020     		movs	r0, #0
 118:I2C_Interface.c ****     }
 267              		.loc 1 118 0
 268 0016 10BD     		pop	{r4, pc}
 269              		.cfi_endproc
 270              	.LFE6:
 271              		.size	I2C_Peripheral_IsDeviceConnected, .-I2C_Peripheral_IsDeviceConnected
 272              		.text
 273              	.Letext0:
 274              		.file 2 "d:\\program files (x86)\\cypress\\psoc creator\\4.3\\psoc creator\\import\\gnu\\arm\\5.4.
 275              		.file 3 "d:\\program files (x86)\\cypress\\psoc creator\\4.3\\psoc creator\\import\\gnu\\arm\\5.4.
 276              		.file 4 "ErrorCodes.h"
 277              		.file 5 "Generated_Source\\PSoC5/I2C_Master.h"