ARM GAS  C:\Users\Lory\AppData\Local\Temp\cciBkcDk.s 			page 1


   1              		.syntax unified
   2              		.cpu cortex-m3
   3              		.fpu softvfp
   4              		.eabi_attribute 20, 1
   5              		.eabi_attribute 21, 1
   6              		.eabi_attribute 23, 3
   7              		.eabi_attribute 24, 1
   8              		.eabi_attribute 25, 1
   9              		.eabi_attribute 26, 1
  10              		.eabi_attribute 30, 1
  11              		.eabi_attribute 34, 1
  12              		.eabi_attribute 18, 4
  13              		.thumb
  14              		.syntax unified
  15              		.file	"InterruptRoutines.c"
  16              		.text
  17              	.Ltext0:
  18              		.cfi_sections	.debug_frame
  19              		.section	.text.ISR_ACC_CUSTOM,"ax",%progbits
  20              		.align	2
  21              		.global	ISR_ACC_CUSTOM
  22              		.thumb
  23              		.thumb_func
  24              		.type	ISR_ACC_CUSTOM, %function
  25              	ISR_ACC_CUSTOM:
  26              	.LFB63:
  27              		.file 1 "InterruptRoutines.c"
   1:InterruptRoutines.c **** /* ========================================
   2:InterruptRoutines.c ****  *
   3:InterruptRoutines.c ****  * In this file a custom interrupt is defined.
   4:InterruptRoutines.c ****  * The purpose of this ISR is to handle LIS3DH
   5:InterruptRoutines.c ****  * data retrieval, processing and packing.
   6:InterruptRoutines.c ****  * The ISR is syncronized with the data rate
   7:InterruptRoutines.c ****  * of the accelerometer and is triggered by a
   8:InterruptRoutines.c ****  * timer every 10ms (100Hz).
   9:InterruptRoutines.c ****  *
  10:InterruptRoutines.c ****  * -> Data retrieval (I2C): 
  11:InterruptRoutines.c ****  * Readings of inertial measurements is archived 
  12:InterruptRoutines.c ****  * using I2C communication. First the status 
  13:InterruptRoutines.c ****  * register is read to check for new available data,
  14:InterruptRoutines.c ****  * then low and high registers of the axis are
  15:InterruptRoutines.c ****  * retrieved and stored in a temporary uint8 buffer.
  16:InterruptRoutines.c ****  *
  17:InterruptRoutines.c ****  * -> Data processing:
  18:InterruptRoutines.c ****  * Low and high registers are merged together, then right
  19:InterruptRoutines.c ****  * adjusted and stored in a signed 16-bit integer variable.
  20:InterruptRoutines.c ****  * Being the measurement a signed 10-bit value, it ranges
  21:InterruptRoutines.c ****  * from -512 to 511, representing an FSR of +-2g units. 
  22:InterruptRoutines.c ****  * The value is then converted to a new scale of +-2000mg 
  23:InterruptRoutines.c ****  * without losing data precision.
  24:InterruptRoutines.c ****  *
  25:InterruptRoutines.c ****  * -> Data packing:
  26:InterruptRoutines.c ****  * All 3 axes processed measurements are divided in 2 chunks
  27:InterruptRoutines.c ****  * of 8-bit data each and placed in a buffer as follows:
  28:InterruptRoutines.c ****  * 
  29:InterruptRoutines.c ****  * DATA = [         HEADER        |  8-bit
  30:InterruptRoutines.c ****  *        |    X_1    |    X_2    | 16-bit
ARM GAS  C:\Users\Lory\AppData\Local\Temp\cciBkcDk.s 			page 2


  31:InterruptRoutines.c ****  *        |    Y_1    |    Y_2    | 16-bit
  32:InterruptRoutines.c ****  *        |    Z_1    |    Z_2    | 16-bit
  33:InterruptRoutines.c ****  *        |          TAIL         ]  8-bit 
  34:InterruptRoutines.c ****  *
  35:InterruptRoutines.c ****  * for a total length of 64 bit of new data available 
  36:InterruptRoutines.c ****  * for UART transmission every 10ms.
  37:InterruptRoutines.c ****  *
  38:InterruptRoutines.c ****  * ========================================
  39:InterruptRoutines.c **** */
  40:InterruptRoutines.c **** 
  41:InterruptRoutines.c **** 
  42:InterruptRoutines.c **** /* Include project dependencies. */
  43:InterruptRoutines.c **** #include "InterruptRoutines.h"
  44:InterruptRoutines.c **** 
  45:InterruptRoutines.c **** 
  46:InterruptRoutines.c **** /* Custom ISR function to read, process and pack LIS3DH inertial measurements data. */
  47:InterruptRoutines.c **** CY_ISR(ISR_ACC_CUSTOM)
  48:InterruptRoutines.c **** {
  28              		.loc 1 48 0
  29              		.cfi_startproc
  30              		@ args = 0, pretend = 0, frame = 0
  31              		@ frame_needed = 0, uses_anonymous_args = 0
  32 0000 70B5     		push	{r4, r5, r6, lr}
  33              		.cfi_def_cfa_offset 16
  34              		.cfi_offset 4, -16
  35              		.cfi_offset 5, -12
  36              		.cfi_offset 6, -8
  37              		.cfi_offset 14, -4
  38 0002 82B0     		sub	sp, sp, #8
  39              		.cfi_def_cfa_offset 24
  49:InterruptRoutines.c ****     /* Bring interrupt line low. */
  50:InterruptRoutines.c ****     ISR_Timer_ReadStatusRegister();
  40              		.loc 1 50 0
  41 0004 FFF7FEFF 		bl	ISR_Timer_ReadStatusRegister
  42              	.LVL0:
  51:InterruptRoutines.c **** 
  52:InterruptRoutines.c ****     /* Read accelerometer status register. */
  53:InterruptRoutines.c ****     error = I2C_Peripheral_ReadRegister(LIS3DH_DEVICE_ADDRESS, LIS3DH_STATUS_REG, &statusReg);
  43              		.loc 1 53 0
  44 0008 354A     		ldr	r2, .L4
  45 000a 2721     		movs	r1, #39
  46 000c 1820     		movs	r0, #24
  47 000e FFF7FEFF 		bl	I2C_Peripheral_ReadRegister
  48              	.LVL1:
  49 0012 344B     		ldr	r3, .L4+4
  50 0014 1870     		strb	r0, [r3]
  54:InterruptRoutines.c ****     if (error == ERROR) return; // If error occurs return from the function
  51              		.loc 1 54 0
  52 0016 0128     		cmp	r0, #1
  53 0018 5FD0     		beq	.L1
  55:InterruptRoutines.c ****     
  56:InterruptRoutines.c ****     /* If 3-axes accelerometer data is ready for reading. */
  57:InterruptRoutines.c ****     if ((statusReg & LIS3DH_DATA_READY_MASK) == LIS3DH_DATA_READY_MASK)
  54              		.loc 1 57 0
  55 001a 314B     		ldr	r3, .L4
  56 001c 1B78     		ldrb	r3, [r3]	@ zero_extendqisi2
  57 001e 13F0080F 		tst	r3, #8
ARM GAS  C:\Users\Lory\AppData\Local\Temp\cciBkcDk.s 			page 3


  58 0022 5AD0     		beq	.L1
  59              	.LBB2:
  58:InterruptRoutines.c ****     {
  59:InterruptRoutines.c ****         /* 
  60:InterruptRoutines.c ****          * Read X axis values over I2C communication and process the data. 
  61:InterruptRoutines.c ****          */ 
  62:InterruptRoutines.c ****         error = I2C_Peripheral_ReadRegisterMulti(LIS3DH_DEVICE_ADDRESS, LIS3DH_OUT_X_L, 2, &tempBuf
  60              		.loc 1 62 0
  61 0024 304B     		ldr	r3, .L4+8
  62 0026 0222     		movs	r2, #2
  63 0028 2821     		movs	r1, #40
  64 002a 1820     		movs	r0, #24
  65 002c FFF7FEFF 		bl	I2C_Peripheral_ReadRegisterMulti
  66              	.LVL2:
  67 0030 2C4B     		ldr	r3, .L4+4
  68 0032 1870     		strb	r0, [r3]
  63:InterruptRoutines.c ****         if (error == ERROR) return; // If error occurs return from the function
  69              		.loc 1 63 0
  70 0034 0128     		cmp	r0, #1
  71 0036 50D0     		beq	.L1
  64:InterruptRoutines.c ****         int16_t xAxis = RightAdjustVal(tempBuffer, true, 6); // Merge X axis low and high registers
  72              		.loc 1 64 0
  73 0038 2B4C     		ldr	r4, .L4+8
  74 003a 0622     		movs	r2, #6
  75 003c 0121     		movs	r1, #1
  76 003e 2046     		mov	r0, r4
  77 0040 FFF7FEFF 		bl	RightAdjustVal
  78              	.LVL3:
  65:InterruptRoutines.c ****         xAxis = MinMaxScaler(xAxis, -ACC_RAW_SCALE, ACC_RAW_SCALE, -ACC_MG_SCALE, ACC_MG_SCALE); //
  79              		.loc 1 65 0
  80 0044 4FF4FA63 		mov	r3, #2000
  81 0048 0093     		str	r3, [sp]
  82 004a A3F57A63 		sub	r3, r3, #4000
  83 004e 4FF40072 		mov	r2, #512
  84 0052 2649     		ldr	r1, .L4+12
  85 0054 FFF7FEFF 		bl	MinMaxScaler
  86              	.LVL4:
  87 0058 0546     		mov	r5, r0
  88              	.LVL5:
  66:InterruptRoutines.c ****         
  67:InterruptRoutines.c ****         /* 
  68:InterruptRoutines.c ****          * Read Y axis values over I2C communication and process the data. 
  69:InterruptRoutines.c ****          */
  70:InterruptRoutines.c ****         error = I2C_Peripheral_ReadRegisterMulti(LIS3DH_DEVICE_ADDRESS, LIS3DH_OUT_Y_L, 2, &tempBuf
  89              		.loc 1 70 0
  90 005a 2346     		mov	r3, r4
  91 005c 0222     		movs	r2, #2
  92 005e 2A21     		movs	r1, #42
  93 0060 1820     		movs	r0, #24
  94 0062 FFF7FEFF 		bl	I2C_Peripheral_ReadRegisterMulti
  95              	.LVL6:
  96 0066 1F4B     		ldr	r3, .L4+4
  97 0068 1870     		strb	r0, [r3]
  71:InterruptRoutines.c ****         if (error == ERROR) return; // If error occurs return from the function
  98              		.loc 1 71 0
  99 006a 0128     		cmp	r0, #1
 100 006c 35D0     		beq	.L1
ARM GAS  C:\Users\Lory\AppData\Local\Temp\cciBkcDk.s 			page 4


  72:InterruptRoutines.c ****         int16_t yAxis = RightAdjustVal(tempBuffer, true, 6); // Merge Y axis low and high registers
 101              		.loc 1 72 0
 102 006e 0622     		movs	r2, #6
 103 0070 0121     		movs	r1, #1
 104 0072 2046     		mov	r0, r4
 105 0074 FFF7FEFF 		bl	RightAdjustVal
 106              	.LVL7:
  73:InterruptRoutines.c ****         yAxis = MinMaxScaler(yAxis, -ACC_RAW_SCALE, ACC_RAW_SCALE, -ACC_MG_SCALE, ACC_MG_SCALE); //
 107              		.loc 1 73 0
 108 0078 4FF4FA63 		mov	r3, #2000
 109 007c 0093     		str	r3, [sp]
 110 007e A3F57A63 		sub	r3, r3, #4000
 111 0082 4FF40072 		mov	r2, #512
 112 0086 1949     		ldr	r1, .L4+12
 113 0088 FFF7FEFF 		bl	MinMaxScaler
 114              	.LVL8:
 115 008c 0646     		mov	r6, r0
 116              	.LVL9:
  74:InterruptRoutines.c ****         
  75:InterruptRoutines.c ****         /* 
  76:InterruptRoutines.c ****          * Read Z axis values over I2C communication and process the data. 
  77:InterruptRoutines.c ****          */
  78:InterruptRoutines.c ****         error = I2C_Peripheral_ReadRegisterMulti(LIS3DH_DEVICE_ADDRESS, LIS3DH_OUT_Z_L, 2, &tempBuf
 117              		.loc 1 78 0
 118 008e 2346     		mov	r3, r4
 119 0090 0222     		movs	r2, #2
 120 0092 2C21     		movs	r1, #44
 121 0094 1820     		movs	r0, #24
 122 0096 FFF7FEFF 		bl	I2C_Peripheral_ReadRegisterMulti
 123              	.LVL10:
 124 009a 124B     		ldr	r3, .L4+4
 125 009c 1870     		strb	r0, [r3]
  79:InterruptRoutines.c ****         if (error == ERROR) return; // If error occurs return from the function
 126              		.loc 1 79 0
 127 009e 0128     		cmp	r0, #1
 128 00a0 1BD0     		beq	.L1
  80:InterruptRoutines.c ****         int16_t zAxis = RightAdjustVal(tempBuffer, true, 6); // Merge Y axis low and high registers
 129              		.loc 1 80 0
 130 00a2 0622     		movs	r2, #6
 131 00a4 0121     		movs	r1, #1
 132 00a6 2046     		mov	r0, r4
 133 00a8 FFF7FEFF 		bl	RightAdjustVal
 134              	.LVL11:
  81:InterruptRoutines.c ****         zAxis = MinMaxScaler(zAxis, -ACC_RAW_SCALE, ACC_RAW_SCALE, -ACC_MG_SCALE, ACC_MG_SCALE); //
 135              		.loc 1 81 0
 136 00ac 4FF4FA63 		mov	r3, #2000
 137 00b0 0093     		str	r3, [sp]
 138 00b2 A3F57A63 		sub	r3, r3, #4000
 139 00b6 4FF40072 		mov	r2, #512
 140 00ba 0C49     		ldr	r1, .L4+12
 141 00bc FFF7FEFF 		bl	MinMaxScaler
 142              	.LVL12:
  82:InterruptRoutines.c ****          
  83:InterruptRoutines.c ****         /* 
  84:InterruptRoutines.c ****          * Load 64-bit message containing all axes data to be send in main function over UART comm.
  85:InterruptRoutines.c ****          */
  86:InterruptRoutines.c ****         LoadAxesData(dataBuffer, xAxis, yAxis, zAxis, DATA_BUFFER_HEADER, DATA_BUFFER_TAIL);
ARM GAS  C:\Users\Lory\AppData\Local\Temp\cciBkcDk.s 			page 5


 143              		.loc 1 86 0
 144 00c0 E023     		movs	r3, #224
 145 00c2 0193     		str	r3, [sp, #4]
 146 00c4 A023     		movs	r3, #160
 147 00c6 0093     		str	r3, [sp]
 148 00c8 0346     		mov	r3, r0
 149 00ca 3246     		mov	r2, r6
 150 00cc 2946     		mov	r1, r5
 151 00ce 0848     		ldr	r0, .L4+16
 152              	.LVL13:
 153 00d0 FFF7FEFF 		bl	LoadAxesData
 154              	.LVL14:
  87:InterruptRoutines.c ****         packetReadyFlag = true; // New data ready for transmission
 155              		.loc 1 87 0
 156 00d4 0122     		movs	r2, #1
 157 00d6 074B     		ldr	r3, .L4+20
 158 00d8 1A70     		strb	r2, [r3]
 159              	.LVL15:
 160              	.L1:
 161              	.LBE2:
  88:InterruptRoutines.c ****     }
  89:InterruptRoutines.c **** }
 162              		.loc 1 89 0
 163 00da 02B0     		add	sp, sp, #8
 164              		.cfi_def_cfa_offset 16
 165              		@ sp needed
 166 00dc 70BD     		pop	{r4, r5, r6, pc}
 167              	.L5:
 168 00de 00BF     		.align	2
 169              	.L4:
 170 00e0 00000000 		.word	statusReg
 171 00e4 00000000 		.word	error
 172 00e8 00000000 		.word	tempBuffer
 173 00ec 00FEFFFF 		.word	-512
 174 00f0 00000000 		.word	dataBuffer
 175 00f4 00000000 		.word	packetReadyFlag
 176              		.cfi_endproc
 177              	.LFE63:
 178              		.size	ISR_ACC_CUSTOM, .-ISR_ACC_CUSTOM
 179              		.comm	error,1,1
 180              		.comm	statusReg,1,1
 181              		.comm	packetReadyFlag,1,1
 182              		.comm	tempBuffer,2,4
 183              		.comm	dataBuffer,8,4
 184              		.text
 185              	.Letext0:
 186              		.file 2 "c:\\program files (x86)\\cypress\\psoc creator\\4.3\\psoc creator\\import\\gnu\\arm\\5.4.
 187              		.file 3 "c:\\program files (x86)\\cypress\\psoc creator\\4.3\\psoc creator\\import\\gnu\\arm\\5.4.
 188              		.file 4 "Generated_Source\\PSoC5/cytypes.h"
 189              		.file 5 "ErrorCodes.h"
 190              		.file 6 "Generated_Source\\PSoC5/core_cm3.h"
 191              		.file 7 "InterruptRoutines.h"
 192              		.file 8 "I2C_Interface.h"
 193              		.file 9 "AccelUtils.h"
 194              		.file 10 "Generated_Source\\PSoC5/ISR_Timer.h"