ARM GAS  C:\Users\Lory\AppData\Local\Temp\ccYz5fYC.s 			page 1


   1              		.syntax unified
   2              		.cpu cortex-m3
   3              		.fpu softvfp
   4              		.eabi_attribute 20, 1
   5              		.eabi_attribute 21, 1
   6              		.eabi_attribute 23, 3
   7              		.eabi_attribute 24, 1
   8              		.eabi_attribute 25, 1
   9              		.eabi_attribute 26, 1
  10              		.eabi_attribute 30, 1
  11              		.eabi_attribute 34, 1
  12              		.eabi_attribute 18, 4
  13              		.thumb
  14              		.syntax unified
  15              		.file	"AccelUtils.c"
  16              		.text
  17              	.Ltext0:
  18              		.cfi_sections	.debug_frame
  19              		.global	__aeabi_fsub
  20              		.global	__aeabi_fdiv
  21              		.global	__aeabi_fmul
  22              		.global	__aeabi_fadd
  23              		.section	.text.MinMaxScaler,"ax",%progbits
  24              		.align	2
  25              		.global	MinMaxScaler
  26              		.thumb
  27              		.thumb_func
  28              		.type	MinMaxScaler, %function
  29              	MinMaxScaler:
  30              	.LFB63:
  31              		.file 1 "AccelUtils.c"
   1:AccelUtils.c  **** /* ========================================
   2:AccelUtils.c  ****  *
   3:AccelUtils.c  ****  * This file contains utility functions to
   4:AccelUtils.c  ****  * process and convert raw LIS3DH inertial
   5:AccelUtils.c  ****  * measurements data.
   6:AccelUtils.c  ****  *
   7:AccelUtils.c  ****  * MinMaxScaler:
   8:AccelUtils.c  ****  * Convert accelerometer axis value to a new scale
   9:AccelUtils.c  ****  * defined by its minimum and maximum values.
  10:AccelUtils.c  ****  * 
  11:AccelUtils.c  ****  * RightAdjustVal:
  12:AccelUtils.c  ****  * Merge 2-bit lower and 8-bit higher registers into 
  13:AccelUtils.c  ****  * a single signed 16-bit right adjusted integer.
  14:AccelUtils.c  ****  * 
  15:AccelUtils.c  ****  * LoadAxesData:
  16:AccelUtils.c  ****  * Given 3-axes measurements data, header and tail,
  17:AccelUtils.c  ****  * pack the data in a 112-bit data buffer divided
  18:AccelUtils.c  ****  * in 8-bit chunks of data.
  19:AccelUtils.c  ****  *
  20:AccelUtils.c  ****  * UnpackAxisData:
  21:AccelUtils.c  ****  * Given a 32-bit axis value, unpack the data into
  22:AccelUtils.c  ****  * four 8-bit values and place them in four consecutive
  23:AccelUtils.c  ****  * addresses pointed by dataPtr.
  24:AccelUtils.c  ****  *
  25:AccelUtils.c  ****  * ========================================
  26:AccelUtils.c  **** */
ARM GAS  C:\Users\Lory\AppData\Local\Temp\ccYz5fYC.s 			page 2


  27:AccelUtils.c  **** 
  28:AccelUtils.c  **** 
  29:AccelUtils.c  **** /* Include project dependencies. */
  30:AccelUtils.c  **** #include "AccelUtils.h"
  31:AccelUtils.c  **** 
  32:AccelUtils.c  **** 
  33:AccelUtils.c  **** /* Return a 16-bit integer converted into a new scale defined by a min and max values. */
  34:AccelUtils.c  **** float MinMaxScaler(float num, float oldMin, float oldMax, float newMin, float newMax)
  35:AccelUtils.c  **** {
  32              		.loc 1 35 0
  33              		.cfi_startproc
  34              		@ args = 4, pretend = 0, frame = 0
  35              		@ frame_needed = 0, uses_anonymous_args = 0
  36              	.LVL0:
  37 0000 F8B5     		push	{r3, r4, r5, r6, r7, lr}
  38              		.cfi_def_cfa_offset 24
  39              		.cfi_offset 3, -24
  40              		.cfi_offset 4, -20
  41              		.cfi_offset 5, -16
  42              		.cfi_offset 6, -12
  43              		.cfi_offset 7, -8
  44              		.cfi_offset 14, -4
  45 0002 0F46     		mov	r7, r1
  46 0004 1646     		mov	r6, r2
  47 0006 1C46     		mov	r4, r3
  36:AccelUtils.c  ****     /* Offset num to be positive. */
  37:AccelUtils.c  ****     float posNum = num - oldMin; 
  48              		.loc 1 37 0
  49 0008 FFF7FEFF 		bl	__aeabi_fsub
  50              	.LVL1:
  51 000c 0546     		mov	r5, r0
  52              	.LVL2:
  38:AccelUtils.c  ****     
  39:AccelUtils.c  ****     /* Current full scale range. */
  40:AccelUtils.c  ****     float oldScale = oldMax - oldMin;
  53              		.loc 1 40 0
  54 000e 3946     		mov	r1, r7
  55 0010 3046     		mov	r0, r6
  56              	.LVL3:
  57 0012 FFF7FEFF 		bl	__aeabi_fsub
  58              	.LVL4:
  59 0016 0646     		mov	r6, r0
  60              	.LVL5:
  41:AccelUtils.c  ****     
  42:AccelUtils.c  ****     /* Target full scale range. */
  43:AccelUtils.c  ****     float newScale = newMax - newMin;
  61              		.loc 1 43 0
  62 0018 2146     		mov	r1, r4
  63 001a 0698     		ldr	r0, [sp, #24]	@ float
  64              	.LVL6:
  65 001c FFF7FEFF 		bl	__aeabi_fsub
  66              	.LVL7:
  44:AccelUtils.c  ****     
  45:AccelUtils.c  ****     /* Return number converted into the new scale. */
  46:AccelUtils.c  ****     return (float)(posNum * (newScale/oldScale) + newMin);
  67              		.loc 1 46 0
  68 0020 3146     		mov	r1, r6
ARM GAS  C:\Users\Lory\AppData\Local\Temp\ccYz5fYC.s 			page 3


  69 0022 FFF7FEFF 		bl	__aeabi_fdiv
  70              	.LVL8:
  71 0026 0146     		mov	r1, r0
  72 0028 2846     		mov	r0, r5
  73 002a FFF7FEFF 		bl	__aeabi_fmul
  74              	.LVL9:
  75 002e 0146     		mov	r1, r0
  76 0030 2046     		mov	r0, r4
  77 0032 FFF7FEFF 		bl	__aeabi_fadd
  78              	.LVL10:
  47:AccelUtils.c  **** }
  79              		.loc 1 47 0
  80 0036 F8BD     		pop	{r3, r4, r5, r6, r7, pc}
  81              		.cfi_endproc
  82              	.LFE63:
  83              		.size	MinMaxScaler, .-MinMaxScaler
  84              		.section	.text.RightAdjustVal,"ax",%progbits
  85              		.align	2
  86              		.global	RightAdjustVal
  87              		.thumb
  88              		.thumb_func
  89              		.type	RightAdjustVal, %function
  90              	RightAdjustVal:
  91              	.LFB64:
  48:AccelUtils.c  **** 
  49:AccelUtils.c  **** 
  50:AccelUtils.c  **** /* Merge lower and higher registers into a 16-bit right adjusted integer. */
  51:AccelUtils.c  **** int16_t RightAdjustVal(uint8_t *data, bool lowerFirst, uint8_t adjustShift)
  52:AccelUtils.c  **** {
  92              		.loc 1 52 0
  93              		.cfi_startproc
  94              		@ args = 0, pretend = 0, frame = 0
  95              		@ frame_needed = 0, uses_anonymous_args = 0
  96              		@ link register save eliminated.
  97              	.LVL11:
  53:AccelUtils.c  ****     /* If data is ordered with lower address data first. */
  54:AccelUtils.c  ****     if (lowerFirst == true)
  98              		.loc 1 54 0
  99 0000 31B1     		cbz	r1, .L4
  55:AccelUtils.c  ****     {
  56:AccelUtils.c  ****         return (int16_t)((data[0] | (data[1] << 8))) >> adjustShift;
 100              		.loc 1 56 0
 101 0002 0378     		ldrb	r3, [r0]	@ zero_extendqisi2
 102 0004 4078     		ldrb	r0, [r0, #1]	@ zero_extendqisi2
 103              	.LVL12:
 104 0006 43EA0020 		orr	r0, r3, r0, lsl #8
 105 000a 00B2     		sxth	r0, r0
 106 000c 1041     		asrs	r0, r0, r2
 107 000e 7047     		bx	lr
 108              	.LVL13:
 109              	.L4:
  57:AccelUtils.c  ****     }
  58:AccelUtils.c  ****     /* If data is ordered with higher address data first. */
  59:AccelUtils.c  ****     else
  60:AccelUtils.c  ****     {
  61:AccelUtils.c  ****         return (int16_t)(((data[0] << 8) | data[1])) >> adjustShift;
 110              		.loc 1 61 0
ARM GAS  C:\Users\Lory\AppData\Local\Temp\ccYz5fYC.s 			page 4


 111 0010 0178     		ldrb	r1, [r0]	@ zero_extendqisi2
 112              	.LVL14:
 113 0012 4378     		ldrb	r3, [r0, #1]	@ zero_extendqisi2
 114 0014 43EA0120 		orr	r0, r3, r1, lsl #8
 115              	.LVL15:
 116 0018 00B2     		sxth	r0, r0
 117 001a 1041     		asrs	r0, r0, r2
  62:AccelUtils.c  ****     }
  63:AccelUtils.c  **** }
 118              		.loc 1 63 0
 119 001c 7047     		bx	lr
 120              		.cfi_endproc
 121              	.LFE64:
 122              		.size	RightAdjustVal, .-RightAdjustVal
 123 001e 00BF     		.section	.text.UnpackAxisData,"ax",%progbits
 124              		.align	2
 125              		.global	UnpackAxisData
 126              		.thumb
 127              		.thumb_func
 128              		.type	UnpackAxisData, %function
 129              	UnpackAxisData:
 130              	.LFB66:
  64:AccelUtils.c  **** 
  65:AccelUtils.c  **** 
  66:AccelUtils.c  **** /* Load axes data into a 112-bit data buffer organized as follows: 
  67:AccelUtils.c  ****  *
  68:AccelUtils.c  ****  * DATA = [         HEADER        |  8-bit
  69:AccelUtils.c  ****           | X_1 | X_2 | X_3 | X_4 | 32-bit
  70:AccelUtils.c  ****           | Y_1 | Y_2 | Y_3 | Y_4 | 32-bit
  71:AccelUtils.c  ****           | Z_1 | Z_2 | Z_3 | Z_4 | 32-bit
  72:AccelUtils.c  ****           |          TAIL         ]  8-bit 
  73:AccelUtils.c  ****  */
  74:AccelUtils.c  **** void LoadAxesData(uint8_t *data, int32_t x, int32_t y, int32_t z, uint8_t header, uint8_t tail)
  75:AccelUtils.c  **** {
  76:AccelUtils.c  ****     /* Define axis vector to loop over. */
  77:AccelUtils.c  ****     int32_t axisVect[3] = {x, y, z};
  78:AccelUtils.c  ****     
  79:AccelUtils.c  ****     /* Load header and tail values into the buffer. */
  80:AccelUtils.c  ****     data[0] = header;
  81:AccelUtils.c  ****     data[13] = tail;
  82:AccelUtils.c  ****     
  83:AccelUtils.c  ****     /* Load axes values in the corresponding addresses in the buffer. */
  84:AccelUtils.c  ****     for (uint8_t i=0; i<3; i++)
  85:AccelUtils.c  ****     {
  86:AccelUtils.c  ****         /* Unpack 32-bit data into 4 separate 8-bit unsigned variables. */
  87:AccelUtils.c  ****         UnpackAxisData(axisVect[i], &data[1+i*4]);
  88:AccelUtils.c  ****     }
  89:AccelUtils.c  **** }
  90:AccelUtils.c  **** 
  91:AccelUtils.c  **** 
  92:AccelUtils.c  **** /* Unpack 32-bit val into 4 successive 8-bit addresses pointed by dataPtr. */
  93:AccelUtils.c  ****  void UnpackAxisData(int32_t val, uint8_t *dataPtr)
  94:AccelUtils.c  **** {
 131              		.loc 1 94 0
 132              		.cfi_startproc
 133              		@ args = 0, pretend = 0, frame = 0
 134              		@ frame_needed = 0, uses_anonymous_args = 0
ARM GAS  C:\Users\Lory\AppData\Local\Temp\ccYz5fYC.s 			page 5


 135              		@ link register save eliminated.
 136              	.LVL16:
 137              	.LBB2:
  95:AccelUtils.c  ****     /* Shift and mask byte depending on position. */
  96:AccelUtils.c  ****     for (uint8_t i=0; i<4; i++)
 138              		.loc 1 96 0
 139 0000 0023     		movs	r3, #0
 140 0002 05E0     		b	.L7
 141              	.LVL17:
 142              	.L8:
  97:AccelUtils.c  ****     {
  98:AccelUtils.c  ****         /* Increment data pointer and assign new value. */
  99:AccelUtils.c  ****         *(dataPtr+i) = (uint8_t)((val >> 8*i) & 0xFF);
 143              		.loc 1 99 0 discriminator 3
 144 0004 DA00     		lsls	r2, r3, #3
 145 0006 40FA02F2 		asr	r2, r0, r2
 146 000a CA54     		strb	r2, [r1, r3]
  96:AccelUtils.c  ****     {
 147              		.loc 1 96 0 discriminator 3
 148 000c 0133     		adds	r3, r3, #1
 149              	.LVL18:
 150 000e DBB2     		uxtb	r3, r3
 151              	.LVL19:
 152              	.L7:
  96:AccelUtils.c  ****     {
 153              		.loc 1 96 0 is_stmt 0 discriminator 1
 154 0010 032B     		cmp	r3, #3
 155 0012 F7D9     		bls	.L8
 156              	.LBE2:
 100:AccelUtils.c  ****     }
 101:AccelUtils.c  **** }
 157              		.loc 1 101 0 is_stmt 1
 158 0014 7047     		bx	lr
 159              		.cfi_endproc
 160              	.LFE66:
 161              		.size	UnpackAxisData, .-UnpackAxisData
 162 0016 00BF     		.section	.text.LoadAxesData,"ax",%progbits
 163              		.align	2
 164              		.global	LoadAxesData
 165              		.thumb
 166              		.thumb_func
 167              		.type	LoadAxesData, %function
 168              	LoadAxesData:
 169              	.LFB65:
  75:AccelUtils.c  ****     /* Define axis vector to loop over. */
 170              		.loc 1 75 0
 171              		.cfi_startproc
 172              		@ args = 8, pretend = 0, frame = 16
 173              		@ frame_needed = 0, uses_anonymous_args = 0
 174              	.LVL20:
 175 0000 30B5     		push	{r4, r5, lr}
 176              		.cfi_def_cfa_offset 12
 177              		.cfi_offset 4, -12
 178              		.cfi_offset 5, -8
 179              		.cfi_offset 14, -4
 180 0002 85B0     		sub	sp, sp, #20
 181              		.cfi_def_cfa_offset 32
ARM GAS  C:\Users\Lory\AppData\Local\Temp\ccYz5fYC.s 			page 6


 182 0004 0546     		mov	r5, r0
  77:AccelUtils.c  ****     
 183              		.loc 1 77 0
 184 0006 0191     		str	r1, [sp, #4]
 185 0008 0292     		str	r2, [sp, #8]
 186 000a 0393     		str	r3, [sp, #12]
  80:AccelUtils.c  ****     data[13] = tail;
 187              		.loc 1 80 0
 188 000c 9DF82030 		ldrb	r3, [sp, #32]	@ zero_extendqisi2
 189              	.LVL21:
 190 0010 0370     		strb	r3, [r0]
  81:AccelUtils.c  ****     
 191              		.loc 1 81 0
 192 0012 9DF82430 		ldrb	r3, [sp, #36]	@ zero_extendqisi2
 193 0016 4373     		strb	r3, [r0, #13]
 194              	.LVL22:
 195              	.LBB3:
  84:AccelUtils.c  ****     {
 196              		.loc 1 84 0
 197 0018 0024     		movs	r4, #0
 198 001a 0AE0     		b	.L10
 199              	.LVL23:
 200              	.L11:
  87:AccelUtils.c  ****     }
 201              		.loc 1 87 0 discriminator 3
 202 001c A300     		lsls	r3, r4, #2
 203 001e 591C     		adds	r1, r3, #1
 204 0020 04AA     		add	r2, sp, #16
 205 0022 1344     		add	r3, r3, r2
 206 0024 2944     		add	r1, r1, r5
 207 0026 53F80C0C 		ldr	r0, [r3, #-12]
 208 002a FFF7FEFF 		bl	UnpackAxisData
 209              	.LVL24:
  84:AccelUtils.c  ****     {
 210              		.loc 1 84 0 discriminator 3
 211 002e 0134     		adds	r4, r4, #1
 212              	.LVL25:
 213 0030 E4B2     		uxtb	r4, r4
 214              	.LVL26:
 215              	.L10:
  84:AccelUtils.c  ****     {
 216              		.loc 1 84 0 is_stmt 0 discriminator 1
 217 0032 022C     		cmp	r4, #2
 218 0034 F2D9     		bls	.L11
 219              	.LBE3:
  89:AccelUtils.c  **** 
 220              		.loc 1 89 0 is_stmt 1
 221 0036 05B0     		add	sp, sp, #20
 222              		.cfi_def_cfa_offset 12
 223              		@ sp needed
 224 0038 30BD     		pop	{r4, r5, pc}
 225              		.cfi_endproc
 226              	.LFE65:
 227              		.size	LoadAxesData, .-LoadAxesData
 228 003a 00BF     		.text
 229              	.Letext0:
 230              		.file 2 "c:\\program files (x86)\\cypress\\psoc creator\\4.3\\psoc creator\\import\\gnu\\arm\\5.4.
ARM GAS  C:\Users\Lory\AppData\Local\Temp\ccYz5fYC.s 			page 7


 231              		.file 3 "c:\\program files (x86)\\cypress\\psoc creator\\4.3\\psoc creator\\import\\gnu\\arm\\5.4.
 232              		.file 4 "Generated_Source\\PSoC5/core_cm3.h"