ARM GAS  C:\Users\Lory\AppData\Local\Temp\ccXRdUee.s 			page 1


   1              		.syntax unified
   2              		.cpu cortex-m3
   3              		.fpu softvfp
   4              		.eabi_attribute 20, 1
   5              		.eabi_attribute 21, 1
   6              		.eabi_attribute 23, 3
   7              		.eabi_attribute 24, 1
   8              		.eabi_attribute 25, 1
   9              		.eabi_attribute 26, 1
  10              		.eabi_attribute 30, 1
  11              		.eabi_attribute 34, 1
  12              		.eabi_attribute 18, 4
  13              		.thumb
  14              		.syntax unified
  15              		.file	"InterruptRoutines.c"
  16              		.text
  17              	.Ltext0:
  18              		.cfi_sections	.debug_frame
  19              		.global	__aeabi_i2f
  20              		.section	.text.ISR_ACC_CUSTOM,"ax",%progbits
  21              		.align	2
  22              		.global	ISR_ACC_CUSTOM
  23              		.thumb
  24              		.thumb_func
  25              		.type	ISR_ACC_CUSTOM, %function
  26              	ISR_ACC_CUSTOM:
  27              	.LFB63:
  28              		.file 1 "InterruptRoutines.c"
   1:InterruptRoutines.c **** /* ========================================
   2:InterruptRoutines.c ****  *
   3:InterruptRoutines.c ****  * In this file a custom interrupt is defined.
   4:InterruptRoutines.c ****  * The purpose of this ISR is to handle LIS3DH
   5:InterruptRoutines.c ****  * data retrieval, processing and transmission.
   6:InterruptRoutines.c ****  * The ISR is sincronized with the data rate
   7:InterruptRoutines.c ****  * of the accelerometer and is triggered by a
   8:InterruptRoutines.c ****  * timer every 10ms (100Hz).
   9:InterruptRoutines.c ****  *
  10:InterruptRoutines.c ****  * -> Data retrieval (I2C): 
  11:InterruptRoutines.c ****  * Readings of inertial measurements is archived 
  12:InterruptRoutines.c ****  * using I2C communication. First the status 
  13:InterruptRoutines.c ****  * register is read to check for new available data,
  14:InterruptRoutines.c ****  * then low and high registers of the axis are
  15:InterruptRoutines.c ****  * retrieved and stored in a temporary uint8 buffer.
  16:InterruptRoutines.c ****  *
  17:InterruptRoutines.c ****  * -> Data processing:
  18:InterruptRoutines.c ****  * Low and high registers are merged together, then right
  19:InterruptRoutines.c ****  * adjusted and stored in a signed 16-bit integer variable.
  20:InterruptRoutines.c ****  * Being the measurement a signed 10-bit value, it ranges
  21:InterruptRoutines.c ****  * from -512 to 511, representing an FSR of +-2g units. 
  22:InterruptRoutines.c ****  * The value is then converted to a new scale of +-2000mg 
  23:InterruptRoutines.c ****  * without losing data precision.
  24:InterruptRoutines.c ****  *
  25:InterruptRoutines.c ****  * -> Data transmission (UART):
  26:InterruptRoutines.c ****  * All 3 axes processed measurements are divided in chunks
  27:InterruptRoutines.c ****  * of 8-bit data each and placed in a buffer as follows:
  28:InterruptRoutines.c ****  * 
  29:InterruptRoutines.c ****  * [ HEADER | X_LOW | X_HIGH | Y_LOW | Y_HIGH | Z_LOW | Z_HIGH | TAIL ]
ARM GAS  C:\Users\Lory\AppData\Local\Temp\ccXRdUee.s 			page 2


  30:InterruptRoutines.c ****  *
  31:InterruptRoutines.c ****  * for a total length of 64 bit to be send every 10ms, giving 
  32:InterruptRoutines.c ****  * us a baudrate (or bitrate in this case) of 6400. To ensure 
  33:InterruptRoutines.c ****  * a stable and reliable communication over UART, the data 
  34:InterruptRoutines.c ****  * buffer is transmitted with a baudrate of 9600.
  35:InterruptRoutines.c ****  *
  36:InterruptRoutines.c ****  * ========================================
  37:InterruptRoutines.c **** */
  38:InterruptRoutines.c **** 
  39:InterruptRoutines.c **** 
  40:InterruptRoutines.c **** /* Include project dependencies. */
  41:InterruptRoutines.c **** #include "InterruptRoutines.h"
  42:InterruptRoutines.c **** 
  43:InterruptRoutines.c **** 
  44:InterruptRoutines.c **** /* Custom ISR function to read, process and transmit LIS3DH inertial measurements data. */
  45:InterruptRoutines.c **** CY_ISR(ISR_ACC_CUSTOM)
  46:InterruptRoutines.c **** {
  29              		.loc 1 46 0
  30              		.cfi_startproc
  31              		@ args = 0, pretend = 0, frame = 0
  32              		@ frame_needed = 0, uses_anonymous_args = 0
  33 0000 70B5     		push	{r4, r5, r6, lr}
  34              		.cfi_def_cfa_offset 16
  35              		.cfi_offset 4, -16
  36              		.cfi_offset 5, -12
  37              		.cfi_offset 6, -8
  38              		.cfi_offset 14, -4
  39 0002 82B0     		sub	sp, sp, #8
  40              		.cfi_def_cfa_offset 24
  47:InterruptRoutines.c ****     /* Bring interrupt line low. */
  48:InterruptRoutines.c ****     ISR_Timer_ReadStatusRegister();
  41              		.loc 1 48 0
  42 0004 FFF7FEFF 		bl	ISR_Timer_ReadStatusRegister
  43              	.LVL0:
  49:InterruptRoutines.c **** 
  50:InterruptRoutines.c ****     /* Read accelerometer status register. */
  51:InterruptRoutines.c ****     error = I2C_Peripheral_ReadRegister(LIS3DH_DEVICE_ADDRESS, LIS3DH_STATUS_REG, &statusReg);
  44              		.loc 1 51 0
  45 0008 374A     		ldr	r2, .L4
  46 000a 2721     		movs	r1, #39
  47 000c 1820     		movs	r0, #24
  48 000e FFF7FEFF 		bl	I2C_Peripheral_ReadRegister
  49              	.LVL1:
  50 0012 364B     		ldr	r3, .L4+4
  51 0014 1870     		strb	r0, [r3]
  52:InterruptRoutines.c ****     if (error == ERROR) return; // If error occurs return from the function
  52              		.loc 1 52 0
  53 0016 0128     		cmp	r0, #1
  54 0018 64D0     		beq	.L1
  53:InterruptRoutines.c ****     
  54:InterruptRoutines.c ****     /* If 3-axes accelerometer data is ready for reading. */
  55:InterruptRoutines.c ****     if ((statusReg & LIS3DH_DATA_READY_MASK) == LIS3DH_DATA_READY_MASK)
  55              		.loc 1 55 0
  56 001a 334B     		ldr	r3, .L4
  57 001c 1B78     		ldrb	r3, [r3]	@ zero_extendqisi2
  58 001e 13F0080F 		tst	r3, #8
  59 0022 5FD0     		beq	.L1
ARM GAS  C:\Users\Lory\AppData\Local\Temp\ccXRdUee.s 			page 3


  60              	.LBB2:
  56:InterruptRoutines.c ****     {
  57:InterruptRoutines.c ****         /* 
  58:InterruptRoutines.c ****          * Read X axis values over I2C communication and process the data. 
  59:InterruptRoutines.c ****          */ 
  60:InterruptRoutines.c ****         error = I2C_Peripheral_ReadRegisterMulti(LIS3DH_DEVICE_ADDRESS, LIS3DH_OUT_X_L, 2, &tempBuf
  61              		.loc 1 60 0
  62 0024 324B     		ldr	r3, .L4+8
  63 0026 0222     		movs	r2, #2
  64 0028 2821     		movs	r1, #40
  65 002a 1820     		movs	r0, #24
  66 002c FFF7FEFF 		bl	I2C_Peripheral_ReadRegisterMulti
  67              	.LVL2:
  68 0030 2E4B     		ldr	r3, .L4+4
  69 0032 1870     		strb	r0, [r3]
  61:InterruptRoutines.c ****         if (error == ERROR) return; // If error occurs return from the function
  70              		.loc 1 61 0
  71 0034 0128     		cmp	r0, #1
  72 0036 55D0     		beq	.L1
  62:InterruptRoutines.c ****         int16_t xAxis = RightAdjustVal(tempBuffer, true, 4); // Merge X axis low and high registers
  73              		.loc 1 62 0
  74 0038 2D4C     		ldr	r4, .L4+8
  75 003a 0422     		movs	r2, #4
  76 003c 0121     		movs	r1, #1
  77 003e 2046     		mov	r0, r4
  78 0040 FFF7FEFF 		bl	RightAdjustVal
  79              	.LVL3:
  63:InterruptRoutines.c ****         
  64:InterruptRoutines.c ****         /* Convert value in m/s^2 units. */
  65:InterruptRoutines.c ****         float xAccel = MinMaxScaler(xAxis, -LIS3DH_RAW_FSR, LIS3DH_RAW_FSR, -LIS3DH_4G_FSR, LIS3DH_
  80              		.loc 1 65 0
  81 0044 FFF7FEFF 		bl	__aeabi_i2f
  82              	.LVL4:
  83 0048 2A4B     		ldr	r3, .L4+12
  84 004a 0093     		str	r3, [sp]	@ float
  85 004c 2A4B     		ldr	r3, .L4+16
  86 004e 4FF08A42 		mov	r2, #1157627904
  87 0052 4FF04541 		mov	r1, #-989855744
  88 0056 FFF7FEFF 		bl	MinMaxScaler
  89              	.LVL5:
  90 005a 0546     		mov	r5, r0
  91              	.LVL6:
  66:InterruptRoutines.c ****         
  67:InterruptRoutines.c ****         /* 
  68:InterruptRoutines.c ****          * Read Y axis values over I2C communication and process the data. 
  69:InterruptRoutines.c ****          */
  70:InterruptRoutines.c ****         error = I2C_Peripheral_ReadRegisterMulti(LIS3DH_DEVICE_ADDRESS, LIS3DH_OUT_Y_L, 2, &tempBuf
  92              		.loc 1 70 0
  93 005c 2346     		mov	r3, r4
  94 005e 0222     		movs	r2, #2
  95 0060 2A21     		movs	r1, #42
  96 0062 1820     		movs	r0, #24
  97              	.LVL7:
  98 0064 FFF7FEFF 		bl	I2C_Peripheral_ReadRegisterMulti
  99              	.LVL8:
 100 0068 204B     		ldr	r3, .L4+4
 101 006a 1870     		strb	r0, [r3]
ARM GAS  C:\Users\Lory\AppData\Local\Temp\ccXRdUee.s 			page 4


  71:InterruptRoutines.c ****         if (error == ERROR) return; // If error occurs return from the function
 102              		.loc 1 71 0
 103 006c 0128     		cmp	r0, #1
 104 006e 39D0     		beq	.L1
  72:InterruptRoutines.c ****         int16_t yAxis = RightAdjustVal(tempBuffer, true, 4); // Merge Y axis low and high registers
 105              		.loc 1 72 0
 106 0070 0422     		movs	r2, #4
 107 0072 0121     		movs	r1, #1
 108 0074 2046     		mov	r0, r4
 109 0076 FFF7FEFF 		bl	RightAdjustVal
 110              	.LVL9:
  73:InterruptRoutines.c ****         
  74:InterruptRoutines.c ****         /* Convert value in m/s^2 units. */
  75:InterruptRoutines.c ****         float yAccel = MinMaxScaler(yAxis, -LIS3DH_RAW_FSR, LIS3DH_RAW_FSR, -LIS3DH_4G_FSR, LIS3DH_
 111              		.loc 1 75 0
 112 007a FFF7FEFF 		bl	__aeabi_i2f
 113              	.LVL10:
 114 007e 1D4B     		ldr	r3, .L4+12
 115 0080 0093     		str	r3, [sp]	@ float
 116 0082 1D4B     		ldr	r3, .L4+16
 117 0084 4FF08A42 		mov	r2, #1157627904
 118 0088 4FF04541 		mov	r1, #-989855744
 119 008c FFF7FEFF 		bl	MinMaxScaler
 120              	.LVL11:
 121 0090 0646     		mov	r6, r0
 122              	.LVL12:
  76:InterruptRoutines.c ****         
  77:InterruptRoutines.c ****         /* 
  78:InterruptRoutines.c ****          * Read Z axis values over I2C communication and process the data. 
  79:InterruptRoutines.c ****          */
  80:InterruptRoutines.c ****         error = I2C_Peripheral_ReadRegisterMulti(LIS3DH_DEVICE_ADDRESS, LIS3DH_OUT_Z_L, 2, &tempBuf
 123              		.loc 1 80 0
 124 0092 2346     		mov	r3, r4
 125 0094 0222     		movs	r2, #2
 126 0096 2C21     		movs	r1, #44
 127 0098 1820     		movs	r0, #24
 128              	.LVL13:
 129 009a FFF7FEFF 		bl	I2C_Peripheral_ReadRegisterMulti
 130              	.LVL14:
 131 009e 134B     		ldr	r3, .L4+4
 132 00a0 1870     		strb	r0, [r3]
  81:InterruptRoutines.c ****         if (error == ERROR) return; // If error occurs return from the function
 133              		.loc 1 81 0
 134 00a2 0128     		cmp	r0, #1
 135 00a4 1ED0     		beq	.L1
  82:InterruptRoutines.c ****         int16_t zAxis = RightAdjustVal(tempBuffer, true, 4); // Merge Z axis low and high registers
 136              		.loc 1 82 0
 137 00a6 0422     		movs	r2, #4
 138 00a8 0121     		movs	r1, #1
 139 00aa 2046     		mov	r0, r4
 140 00ac FFF7FEFF 		bl	RightAdjustVal
 141              	.LVL15:
  83:InterruptRoutines.c ****         
  84:InterruptRoutines.c ****         /* Convert value in m/s^2 units. */
  85:InterruptRoutines.c ****         float zAccel = MinMaxScaler(zAxis, -LIS3DH_RAW_FSR, LIS3DH_RAW_FSR, -LIS3DH_4G_FSR, LIS3DH_
 142              		.loc 1 85 0
 143 00b0 FFF7FEFF 		bl	__aeabi_i2f
ARM GAS  C:\Users\Lory\AppData\Local\Temp\ccXRdUee.s 			page 5


 144              	.LVL16:
 145 00b4 0F4B     		ldr	r3, .L4+12
 146 00b6 0093     		str	r3, [sp]	@ float
 147 00b8 0F4B     		ldr	r3, .L4+16
 148 00ba 4FF08A42 		mov	r2, #1157627904
 149 00be 4FF04541 		mov	r1, #-989855744
 150 00c2 FFF7FEFF 		bl	MinMaxScaler
 151              	.LVL17:
  86:InterruptRoutines.c ****          
  87:InterruptRoutines.c ****         /* 
  88:InterruptRoutines.c ****          * Load and send 64-bit message containing all axes data over UART communication. 
  89:InterruptRoutines.c ****          */
  90:InterruptRoutines.c ****         LoadAxesData(dataBuffer, xAccel, yAccel, zAccel, DATA_BUFFER_HEADER, DATA_BUFFER_TAIL);
 152              		.loc 1 90 0
 153 00c6 0D4C     		ldr	r4, .L4+20
 154 00c8 E023     		movs	r3, #224
 155 00ca 0193     		str	r3, [sp, #4]
 156 00cc A023     		movs	r3, #160
 157 00ce 0093     		str	r3, [sp]
 158 00d0 0346     		mov	r3, r0
 159 00d2 3246     		mov	r2, r6
 160 00d4 2946     		mov	r1, r5
 161 00d6 2046     		mov	r0, r4
 162              	.LVL18:
 163 00d8 FFF7FEFF 		bl	LoadAxesData
 164              	.LVL19:
  91:InterruptRoutines.c ****         UART_Debug_PutArray(dataBuffer, 14);
 165              		.loc 1 91 0
 166 00dc 0E21     		movs	r1, #14
 167 00de 2046     		mov	r0, r4
 168 00e0 FFF7FEFF 		bl	UART_Debug_PutArray
 169              	.LVL20:
 170              	.L1:
 171              	.LBE2:
  92:InterruptRoutines.c ****     }
  93:InterruptRoutines.c **** }
 172              		.loc 1 93 0
 173 00e4 02B0     		add	sp, sp, #8
 174              		.cfi_def_cfa_offset 16
 175              		@ sp needed
 176 00e6 70BD     		pop	{r4, r5, r6, pc}
 177              	.L5:
 178              		.align	2
 179              	.L4:
 180 00e8 00000000 		.word	statusReg
 181 00ec 00000000 		.word	error
 182 00f0 00000000 		.word	tempBuffer
 183 00f4 0AE81C42 		.word	1109190666
 184 00f8 0AE81CC2 		.word	-1038292982
 185 00fc 00000000 		.word	dataBuffer
 186              		.cfi_endproc
 187              	.LFE63:
 188              		.size	ISR_ACC_CUSTOM, .-ISR_ACC_CUSTOM
 189              		.comm	error,1,1
 190              		.comm	statusReg,1,1
 191              		.comm	tempBuffer,2,4
 192              		.comm	dataBuffer,14,4
ARM GAS  C:\Users\Lory\AppData\Local\Temp\ccXRdUee.s 			page 6


 193              		.text
 194              	.Letext0:
 195              		.file 2 "c:\\program files (x86)\\cypress\\psoc creator\\4.3\\psoc creator\\import\\gnu\\arm\\5.4.
 196              		.file 3 "c:\\program files (x86)\\cypress\\psoc creator\\4.3\\psoc creator\\import\\gnu\\arm\\5.4.
 197              		.file 4 "Generated_Source\\PSoC5/cytypes.h"
 198              		.file 5 "ErrorCodes.h"
 199              		.file 6 "Generated_Source\\PSoC5/core_cm3.h"
 200              		.file 7 "InterruptRoutines.h"
 201              		.file 8 "I2C_Interface.h"
 202              		.file 9 "AccelUtils.h"
 203              		.file 10 "Generated_Source\\PSoC5/UART_Debug.h"
 204              		.file 11 "Generated_Source\\PSoC5/ISR_Timer.h"