ARM GAS  C:\Users\Lory\AppData\Local\Temp\ccfqBcCQ.s 			page 1


   1              		.syntax unified
   2              		.cpu cortex-m3
   3              		.fpu softvfp
   4              		.eabi_attribute 20, 1
   5              		.eabi_attribute 21, 1
   6              		.eabi_attribute 23, 3
   7              		.eabi_attribute 24, 1
   8              		.eabi_attribute 25, 1
   9              		.eabi_attribute 26, 1
  10              		.eabi_attribute 30, 1
  11              		.eabi_attribute 34, 1
  12              		.eabi_attribute 18, 4
  13              		.thumb
  14              		.syntax unified
  15              		.file	"AccelUtils.c"
  16              		.text
  17              	.Ltext0:
  18              		.cfi_sections	.debug_frame
  19              		.global	__aeabi_i2f
  20              		.global	__aeabi_fdiv
  21              		.global	__aeabi_fmul
  22              		.global	__aeabi_fadd
  23              		.global	__aeabi_f2iz
  24              		.section	.text.MinMaxScaler,"ax",%progbits
  25              		.align	2
  26              		.global	MinMaxScaler
  27              		.thumb
  28              		.thumb_func
  29              		.type	MinMaxScaler, %function
  30              	MinMaxScaler:
  31              	.LFB63:
  32              		.file 1 "AccelUtils.c"
   1:AccelUtils.c  **** /* ========================================
   2:AccelUtils.c  ****  *
   3:AccelUtils.c  ****  * Copyright YOUR COMPANY, THE YEAR
   4:AccelUtils.c  ****  * All Rights Reserved
   5:AccelUtils.c  ****  * UNPUBLISHED, LICENSED SOFTWARE.
   6:AccelUtils.c  ****  *
   7:AccelUtils.c  ****  * CONFIDENTIAL AND PROPRIETARY INFORMATION
   8:AccelUtils.c  ****  * WHICH IS THE PROPERTY OF your company.
   9:AccelUtils.c  ****  *
  10:AccelUtils.c  ****  * ========================================
  11:AccelUtils.c  **** */
  12:AccelUtils.c  **** 
  13:AccelUtils.c  **** 
  14:AccelUtils.c  **** /* Include project dependecies. */
  15:AccelUtils.c  **** #include "AccelUtils.h"
  16:AccelUtils.c  **** 
  17:AccelUtils.c  **** 
  18:AccelUtils.c  **** 
  19:AccelUtils.c  **** /* Return a 16-bit integer converted into a new scale defined by a min and max values. */
  20:AccelUtils.c  **** int16_t MinMaxScaler(int16_t num, int16_t oldMin, int16_t oldMax, int16_t newMin, int16_t newMax)
  21:AccelUtils.c  **** {
  33              		.loc 1 21 0
  34              		.cfi_startproc
  35              		@ args = 4, pretend = 0, frame = 0
  36              		@ frame_needed = 0, uses_anonymous_args = 0
ARM GAS  C:\Users\Lory\AppData\Local\Temp\ccfqBcCQ.s 			page 2


  37              	.LVL0:
  38 0000 F8B5     		push	{r3, r4, r5, r6, r7, lr}
  39              		.cfi_def_cfa_offset 24
  40              		.cfi_offset 3, -24
  41              		.cfi_offset 4, -20
  42              		.cfi_offset 5, -16
  43              		.cfi_offset 6, -12
  44              		.cfi_offset 7, -8
  45              		.cfi_offset 14, -4
  46 0002 0D46     		mov	r5, r1
  47 0004 1746     		mov	r7, r2
  48 0006 1C46     		mov	r4, r3
  22:AccelUtils.c  ****     /* Offset num to be positive. */
  23:AccelUtils.c  ****     float posNum = num - oldMin; 
  49              		.loc 1 23 0
  50 0008 401A     		subs	r0, r0, r1
  51              	.LVL1:
  52 000a FFF7FEFF 		bl	__aeabi_i2f
  53              	.LVL2:
  54 000e 0646     		mov	r6, r0
  55              	.LVL3:
  24:AccelUtils.c  ****     
  25:AccelUtils.c  ****     /* Current full scale range. */
  26:AccelUtils.c  ****     float oldScale = oldMax - oldMin;
  56              		.loc 1 26 0
  57 0010 781B     		subs	r0, r7, r5
  58              	.LVL4:
  59 0012 FFF7FEFF 		bl	__aeabi_i2f
  60              	.LVL5:
  61 0016 0546     		mov	r5, r0
  62              	.LVL6:
  27:AccelUtils.c  ****     
  28:AccelUtils.c  ****     /* Target full scale range. */
  29:AccelUtils.c  ****     float newScale = newMax - newMin;
  63              		.loc 1 29 0
  64 0018 BDF91800 		ldrsh	r0, [sp, #24]
  65              	.LVL7:
  66 001c 001B     		subs	r0, r0, r4
  67 001e FFF7FEFF 		bl	__aeabi_i2f
  68              	.LVL8:
  30:AccelUtils.c  ****     
  31:AccelUtils.c  ****     /* Return number converted into the new scale. */
  32:AccelUtils.c  ****     return (int16_t)(posNum * (newScale/oldScale) + newMin);
  69              		.loc 1 32 0
  70 0022 2946     		mov	r1, r5
  71 0024 FFF7FEFF 		bl	__aeabi_fdiv
  72              	.LVL9:
  73 0028 0146     		mov	r1, r0
  74 002a 3046     		mov	r0, r6
  75 002c FFF7FEFF 		bl	__aeabi_fmul
  76              	.LVL10:
  77 0030 0546     		mov	r5, r0
  78              	.LVL11:
  79 0032 2046     		mov	r0, r4
  80 0034 FFF7FEFF 		bl	__aeabi_i2f
  81              	.LVL12:
  82 0038 2946     		mov	r1, r5
ARM GAS  C:\Users\Lory\AppData\Local\Temp\ccfqBcCQ.s 			page 3


  83 003a FFF7FEFF 		bl	__aeabi_fadd
  84              	.LVL13:
  85 003e FFF7FEFF 		bl	__aeabi_f2iz
  86              	.LVL14:
  33:AccelUtils.c  **** }
  87              		.loc 1 33 0
  88 0042 00B2     		sxth	r0, r0
  89 0044 F8BD     		pop	{r3, r4, r5, r6, r7, pc}
  90              		.cfi_endproc
  91              	.LFE63:
  92              		.size	MinMaxScaler, .-MinMaxScaler
  93 0046 00BF     		.section	.text.RightAdjustVal,"ax",%progbits
  94              		.align	2
  95              		.global	RightAdjustVal
  96              		.thumb
  97              		.thumb_func
  98              		.type	RightAdjustVal, %function
  99              	RightAdjustVal:
 100              	.LFB64:
  34:AccelUtils.c  **** 
  35:AccelUtils.c  **** 
  36:AccelUtils.c  **** /* Merge lower and higher registers into a 16-bit right adjusted integer. */
  37:AccelUtils.c  **** int16_t RightAdjustVal(uint8_t *data, bool lowerFirst, uint8_t adjustShift)
  38:AccelUtils.c  **** {
 101              		.loc 1 38 0
 102              		.cfi_startproc
 103              		@ args = 0, pretend = 0, frame = 0
 104              		@ frame_needed = 0, uses_anonymous_args = 0
 105              		@ link register save eliminated.
 106              	.LVL15:
  39:AccelUtils.c  ****     /* If data is ordered with lower address data first. */
  40:AccelUtils.c  ****     if (lowerFirst == true)
 107              		.loc 1 40 0
 108 0000 31B1     		cbz	r1, .L4
  41:AccelUtils.c  ****     {
  42:AccelUtils.c  ****         return (int16_t)((data[0] | (data[1] << 8))) >> adjustShift;
 109              		.loc 1 42 0
 110 0002 0378     		ldrb	r3, [r0]	@ zero_extendqisi2
 111 0004 4078     		ldrb	r0, [r0, #1]	@ zero_extendqisi2
 112              	.LVL16:
 113 0006 43EA0020 		orr	r0, r3, r0, lsl #8
 114 000a 00B2     		sxth	r0, r0
 115 000c 1041     		asrs	r0, r0, r2
 116 000e 7047     		bx	lr
 117              	.LVL17:
 118              	.L4:
  43:AccelUtils.c  ****     }
  44:AccelUtils.c  ****     /* If data is ordered with higher address data first. */
  45:AccelUtils.c  ****     else
  46:AccelUtils.c  ****     {
  47:AccelUtils.c  ****         return (int16_t)(((data[0] << 8) | data[1])) >> adjustShift;
 119              		.loc 1 47 0
 120 0010 0178     		ldrb	r1, [r0]	@ zero_extendqisi2
 121              	.LVL18:
 122 0012 4378     		ldrb	r3, [r0, #1]	@ zero_extendqisi2
 123 0014 43EA0120 		orr	r0, r3, r1, lsl #8
 124              	.LVL19:
ARM GAS  C:\Users\Lory\AppData\Local\Temp\ccfqBcCQ.s 			page 4


 125 0018 00B2     		sxth	r0, r0
 126 001a 1041     		asrs	r0, r0, r2
  48:AccelUtils.c  ****     }
  49:AccelUtils.c  **** }
 127              		.loc 1 49 0
 128 001c 7047     		bx	lr
 129              		.cfi_endproc
 130              	.LFE64:
 131              		.size	RightAdjustVal, .-RightAdjustVal
 132 001e 00BF     		.text
 133              	.Letext0:
 134              		.file 2 "c:\\program files (x86)\\cypress\\psoc creator\\4.3\\psoc creator\\import\\gnu\\arm\\5.4.
 135              		.file 3 "c:\\program files (x86)\\cypress\\psoc creator\\4.3\\psoc creator\\import\\gnu\\arm\\5.4.
 136              		.file 4 "Generated_Source\\PSoC5/core_cm3.h"