ARM GAS  C:\Users\Lory\AppData\Local\Temp\ccHYflDF.s 			page 1


   1              		.syntax unified
   2              		.cpu cortex-m3
   3              		.fpu softvfp
   4              		.eabi_attribute 20, 1
   5              		.eabi_attribute 21, 1
   6              		.eabi_attribute 23, 3
   7              		.eabi_attribute 24, 1
   8              		.eabi_attribute 25, 1
   9              		.eabi_attribute 26, 1
  10              		.eabi_attribute 30, 1
  11              		.eabi_attribute 34, 1
  12              		.eabi_attribute 18, 4
  13              		.thumb
  14              		.syntax unified
  15              		.file	"InterruptRoutines.c"
  16              		.text
  17              	.Ltext0:
  18              		.cfi_sections	.debug_frame
  19              		.section	.text.ISR_ACC_CUSTOM,"ax",%progbits
  20              		.align	2
  21              		.global	ISR_ACC_CUSTOM
  22              		.thumb
  23              		.thumb_func
  24              		.type	ISR_ACC_CUSTOM, %function
  25              	ISR_ACC_CUSTOM:
  26              	.LFB63:
  27              		.file 1 "InterruptRoutines.c"
   1:InterruptRoutines.c **** /* ========================================
   2:InterruptRoutines.c ****  *
   3:InterruptRoutines.c ****  * Copyright YOUR COMPANY, THE YEAR
   4:InterruptRoutines.c ****  * All Rights Reserved
   5:InterruptRoutines.c ****  * UNPUBLISHED, LICENSED SOFTWARE.
   6:InterruptRoutines.c ****  *
   7:InterruptRoutines.c ****  * CONFIDENTIAL AND PROPRIETARY INFORMATION
   8:InterruptRoutines.c ****  * WHICH IS THE PROPERTY OF your company.
   9:InterruptRoutines.c ****  *
  10:InterruptRoutines.c ****  * ========================================
  11:InterruptRoutines.c **** */
  12:InterruptRoutines.c **** 
  13:InterruptRoutines.c **** /* Include project dependencies. */
  14:InterruptRoutines.c **** #include "InterruptRoutines.h"
  15:InterruptRoutines.c **** #include "AccelUtils.h"
  16:InterruptRoutines.c **** 
  17:InterruptRoutines.c **** 
  18:InterruptRoutines.c **** /* Store status register reading. */
  19:InterruptRoutines.c **** uint8 statusReg;
  20:InterruptRoutines.c **** 
  21:InterruptRoutines.c **** /* Store I2C communication error. */
  22:InterruptRoutines.c **** ErrorCode error;
  23:InterruptRoutines.c **** 
  24:InterruptRoutines.c **** /* Data buffer to store message to be sent over UART. */
  25:InterruptRoutines.c **** uint8_t dataBuffer[8];
  26:InterruptRoutines.c **** 
  27:InterruptRoutines.c **** /* Temporary data buffer to store low and high data registers. */
  28:InterruptRoutines.c **** uint8_t tempBuffer[2];
  29:InterruptRoutines.c **** 
  30:InterruptRoutines.c **** 
ARM GAS  C:\Users\Lory\AppData\Local\Temp\ccHYflDF.s 			page 2


  31:InterruptRoutines.c **** /* Custom ISR function to read LIS3DH data with I2C and send
  32:InterruptRoutines.c ****  * it over UART communication with 64-bit messages. */
  33:InterruptRoutines.c **** CY_ISR(ISR_ACC_CUSTOM)
  34:InterruptRoutines.c **** {
  28              		.loc 1 34 0
  29              		.cfi_startproc
  30              		@ args = 0, pretend = 0, frame = 0
  31              		@ frame_needed = 0, uses_anonymous_args = 0
  32 0000 10B5     		push	{r4, lr}
  33              		.cfi_def_cfa_offset 8
  34              		.cfi_offset 4, -8
  35              		.cfi_offset 14, -4
  36 0002 82B0     		sub	sp, sp, #8
  37              		.cfi_def_cfa_offset 16
  35:InterruptRoutines.c ****     /* Bring interrupt line low. */
  36:InterruptRoutines.c ****     ISR_Timer_ReadStatusRegister();
  38              		.loc 1 36 0
  39 0004 FFF7FEFF 		bl	ISR_Timer_ReadStatusRegister
  40              	.LVL0:
  37:InterruptRoutines.c **** 
  38:InterruptRoutines.c ****     /* Read accelerometer status register. */
  39:InterruptRoutines.c ****     error = I2C_Peripheral_ReadRegister(LIS3DH_DEVICE_ADDRESS, LIS3DH_STATUS_REG, &statusReg);
  41              		.loc 1 39 0
  42 0008 2D4A     		ldr	r2, .L4
  43 000a 2721     		movs	r1, #39
  44 000c 1820     		movs	r0, #24
  45 000e FFF7FEFF 		bl	I2C_Peripheral_ReadRegister
  46              	.LVL1:
  47 0012 2C4B     		ldr	r3, .L4+4
  48 0014 1870     		strb	r0, [r3]
  40:InterruptRoutines.c ****     if (error == ERROR) return; // If error occurs return from the function
  49              		.loc 1 40 0
  50 0016 0128     		cmp	r0, #1
  51 0018 50D0     		beq	.L1
  41:InterruptRoutines.c ****     
  42:InterruptRoutines.c ****     /* If 3-axes accelerometer data is ready for reading. */
  43:InterruptRoutines.c ****     if ((statusReg & LIS3DH_DATA_READY_MASK) == LIS3DH_DATA_READY_MASK)
  52              		.loc 1 43 0
  53 001a 294B     		ldr	r3, .L4
  54 001c 1B78     		ldrb	r3, [r3]	@ zero_extendqisi2
  55 001e 13F0080F 		tst	r3, #8
  56 0022 4BD0     		beq	.L1
  57              	.LBB2:
  44:InterruptRoutines.c ****     {
  45:InterruptRoutines.c ****         /* 
  46:InterruptRoutines.c ****          * TODO: Read X axis values over I2C communication and process the data. 
  47:InterruptRoutines.c ****          */ 
  48:InterruptRoutines.c ****         error = I2C_Peripheral_ReadRegisterMulti(LIS3DH_DEVICE_ADDRESS, LIS3DH_OUT_X_L, 2, &tempBuf
  58              		.loc 1 48 0
  59 0024 284B     		ldr	r3, .L4+8
  60 0026 0222     		movs	r2, #2
  61 0028 2821     		movs	r1, #40
  62 002a 1820     		movs	r0, #24
  63 002c FFF7FEFF 		bl	I2C_Peripheral_ReadRegisterMulti
  64              	.LVL2:
  65 0030 244B     		ldr	r3, .L4+4
  66 0032 1870     		strb	r0, [r3]
ARM GAS  C:\Users\Lory\AppData\Local\Temp\ccHYflDF.s 			page 3


  49:InterruptRoutines.c ****         if (error == ERROR) return; // If error occurs return from the function
  67              		.loc 1 49 0
  68 0034 0128     		cmp	r0, #1
  69 0036 41D0     		beq	.L1
  50:InterruptRoutines.c ****         int16_t xAxis = RightAdjustVal(tempBuffer, true, 6); // Merge X axis low and high registers
  70              		.loc 1 50 0
  71 0038 234C     		ldr	r4, .L4+8
  72 003a 0622     		movs	r2, #6
  73 003c 0121     		movs	r1, #1
  74 003e 2046     		mov	r0, r4
  75 0040 FFF7FEFF 		bl	RightAdjustVal
  76              	.LVL3:
  51:InterruptRoutines.c ****         xAxis = MinMaxScaler(xAxis, -512, 512, -2000, 2000); // Convert value in mG units
  77              		.loc 1 51 0
  78 0044 4FF4FA63 		mov	r3, #2000
  79 0048 0093     		str	r3, [sp]
  80 004a A3F57A63 		sub	r3, r3, #4000
  81 004e 4FF40072 		mov	r2, #512
  82 0052 1E49     		ldr	r1, .L4+12
  83 0054 FFF7FEFF 		bl	MinMaxScaler
  84              	.LVL4:
  52:InterruptRoutines.c ****         
  53:InterruptRoutines.c ****         /* 
  54:InterruptRoutines.c ****          * TODO: Read Y axis values over I2C communication and process the data. 
  55:InterruptRoutines.c ****          */
  56:InterruptRoutines.c ****         error = I2C_Peripheral_ReadRegisterMulti(LIS3DH_DEVICE_ADDRESS, LIS3DH_OUT_Y_L, 2, &tempBuf
  85              		.loc 1 56 0
  86 0058 2346     		mov	r3, r4
  87 005a 0222     		movs	r2, #2
  88 005c 2A21     		movs	r1, #42
  89 005e 1820     		movs	r0, #24
  90 0060 FFF7FEFF 		bl	I2C_Peripheral_ReadRegisterMulti
  91              	.LVL5:
  92 0064 174B     		ldr	r3, .L4+4
  93 0066 1870     		strb	r0, [r3]
  57:InterruptRoutines.c ****         if (error == ERROR) return; // If error occurs return from the function
  94              		.loc 1 57 0
  95 0068 0128     		cmp	r0, #1
  96 006a 27D0     		beq	.L1
  58:InterruptRoutines.c ****         int16_t yAxis = RightAdjustVal(tempBuffer, true, 6); // Merge Y axis low and high registers
  97              		.loc 1 58 0
  98 006c 0622     		movs	r2, #6
  99 006e 0121     		movs	r1, #1
 100 0070 2046     		mov	r0, r4
 101 0072 FFF7FEFF 		bl	RightAdjustVal
 102              	.LVL6:
  59:InterruptRoutines.c ****         yAxis = MinMaxScaler(yAxis, -512, 512, -2000, 2000); // Convert value in mG units
 103              		.loc 1 59 0
 104 0076 4FF4FA63 		mov	r3, #2000
 105 007a 0093     		str	r3, [sp]
 106 007c A3F57A63 		sub	r3, r3, #4000
 107 0080 4FF40072 		mov	r2, #512
 108 0084 1149     		ldr	r1, .L4+12
 109 0086 FFF7FEFF 		bl	MinMaxScaler
 110              	.LVL7:
  60:InterruptRoutines.c ****         
  61:InterruptRoutines.c ****         /* 
ARM GAS  C:\Users\Lory\AppData\Local\Temp\ccHYflDF.s 			page 4


  62:InterruptRoutines.c ****          * TODO: Read Z axis values over I2C communication and process the data. 
  63:InterruptRoutines.c ****          */
  64:InterruptRoutines.c ****         error = I2C_Peripheral_ReadRegisterMulti(LIS3DH_DEVICE_ADDRESS, LIS3DH_OUT_Z_L, 2, &tempBuf
 111              		.loc 1 64 0
 112 008a 2346     		mov	r3, r4
 113 008c 0222     		movs	r2, #2
 114 008e 2C21     		movs	r1, #44
 115 0090 1820     		movs	r0, #24
 116 0092 FFF7FEFF 		bl	I2C_Peripheral_ReadRegisterMulti
 117              	.LVL8:
 118 0096 0B4B     		ldr	r3, .L4+4
 119 0098 1870     		strb	r0, [r3]
  65:InterruptRoutines.c ****         if (error == ERROR) return; // If error occurs return from the function
 120              		.loc 1 65 0
 121 009a 0128     		cmp	r0, #1
 122 009c 0ED0     		beq	.L1
  66:InterruptRoutines.c ****         int16_t zAxis = RightAdjustVal(tempBuffer, true, 6); // Merge Y axis low and high registers
 123              		.loc 1 66 0
 124 009e 0622     		movs	r2, #6
 125 00a0 0121     		movs	r1, #1
 126 00a2 2046     		mov	r0, r4
 127 00a4 FFF7FEFF 		bl	RightAdjustVal
 128              	.LVL9:
  67:InterruptRoutines.c ****         zAxis = MinMaxScaler(zAxis, -512, 512, -2000, 2000); // Convert value in mG units
 129              		.loc 1 67 0
 130 00a8 4FF4FA63 		mov	r3, #2000
 131 00ac 0093     		str	r3, [sp]
 132 00ae A3F57A63 		sub	r3, r3, #4000
 133 00b2 4FF40072 		mov	r2, #512
 134 00b6 0549     		ldr	r1, .L4+12
 135 00b8 FFF7FEFF 		bl	MinMaxScaler
 136              	.LVL10:
 137              	.L1:
 138              	.LBE2:
  68:InterruptRoutines.c ****     }
  69:InterruptRoutines.c **** }
 139              		.loc 1 69 0
 140 00bc 02B0     		add	sp, sp, #8
 141              		.cfi_def_cfa_offset 8
 142              		@ sp needed
 143 00be 10BD     		pop	{r4, pc}
 144              	.L5:
 145              		.align	2
 146              	.L4:
 147 00c0 00000000 		.word	statusReg
 148 00c4 00000000 		.word	error
 149 00c8 00000000 		.word	tempBuffer
 150 00cc 00FEFFFF 		.word	-512
 151              		.cfi_endproc
 152              	.LFE63:
 153              		.size	ISR_ACC_CUSTOM, .-ISR_ACC_CUSTOM
 154              		.comm	tempBuffer,2,4
 155              		.comm	dataBuffer,8,4
 156              		.comm	error,1,1
 157              		.comm	statusReg,1,1
 158              		.text
 159              	.Letext0:
ARM GAS  C:\Users\Lory\AppData\Local\Temp\ccHYflDF.s 			page 5


 160              		.file 2 "c:\\program files (x86)\\cypress\\psoc creator\\4.3\\psoc creator\\import\\gnu\\arm\\5.4.
 161              		.file 3 "c:\\program files (x86)\\cypress\\psoc creator\\4.3\\psoc creator\\import\\gnu\\arm\\5.4.
 162              		.file 4 "Generated_Source\\PSoC5/cytypes.h"
 163              		.file 5 "ErrorCodes.h"
 164              		.file 6 "Generated_Source\\PSoC5/core_cm3.h"
 165              		.file 7 "I2C_Interface.h"
 166              		.file 8 "AccelUtils.h"
 167              		.file 9 "Generated_Source\\PSoC5/ISR_Timer.h"